(lp0
(lp1
I0
aI1
aa(lp2
I1
aa(lp3
I1
aa(lp4
I1
aa(lp5
I0
aI1
aI4
aa(lp6
I1
aa(lp7
I1
aa(lp8
I1
aa(lp9
I1
aa(lp10
I0
aI1
aa(lp11
I0
aI1
aa(lp12
I1
aa(lp13
I0
aI1
aa(lp14
I1
aI3
aa(lp15
I0
aI1
aa(lp16
I1
aa(lp17
I0
aI1
aa(lp18
I0
aI1
aa(lp19
I0
aI1
aa(lp20
I0
aI1
aa(lp21
I1
aI3
aa(lp22
I0
aI1
aa(lp23
I1
aa(lp24
I1
aa(lp25
I1
aa(lp26
I1
aa(lp27
I1
aa(lp28
I1
aa(lp29
I1
aa(lp30
I1
aa(lp31
I1
aa(lp32
I0
aa(lp33
I1
aa(lp34
I1
aa(lp35
I1
aa(lp36
I0
aI1
aa(lp37
I1
aa(lp38
I0
aI1
aa(lp39
I1
aa(lp40
I1
aa(lp41
I0
aI1
aa(lp42
I1
aa(lp43
I1
aI4
aa(lp44
I1
aa(lp45
I1
aI3
aa(lp46
I0
aI1
aa(lp47
I1
aa(lp48
I1
aa(lp49
I1
aa(lp50
I0
aI1
aa(lp51
I0
aI1
aa(lp52
I1
aa(lp53
I1
aI4
aa(lp54
I1
aa(lp55
I1
aa(lp56
I0
aI1
aa(lp57
I0
aI1
aa(lp58
I1
aa(lp59
I1
aa(lp60
I1
aa(lp61
I1
aa(lp62
I1
aa(lp63
I1
aa(lp64
I3
aa(lp65
I1
aa(lp66
I1
aa(lp67
I1
aI4
aa(lp68
I0
aI1
aa(lp69
I0
aI1
aa(lp70
I0
aI1
aa(lp71
I0
aI1
aa(lp72
I1
aa(lp73
I1
aa(lp74
I1
aa(lp75
I1
aa(lp76
I0
aI1
aa(lp77
I0
aI1
aa(lp78
I1
aa(lp79
I0
aI1
aa(lp80
I0
aI1
aa(lp81
I1
aI3
aa(lp82
I0
aI1
aa(lp83
I1
aI4
aa(lp84
I0
aI1
aa(lp85
I1
aa(lp86
I1
aa(lp87
I0
aI1
aa(lp88
I1
aa(lp89
I1
aI3
aa(lp90
I1
aa(lp91
I1
aa(lp92
I1
aa(lp93
I1
aa(lp94
I1
aa(lp95
I1
aa(lp96
I1
aa(lp97
I0
aI1
aa(lp98
I0
aI1
aa(lp99
I0
aI1
aa(lp100
I1
aa(lp101
I1
aI3
aa(lp102
I1
aa(lp103
I1
aa(lp104
I1
aa(lp105
I0
aI1
aa(lp106
I0
aI1
aa(lp107
I1
aa(lp108
I1
aa(lp109
I1
aa(lp110
I1
aa(lp111
I1
aa(lp112
I1
aa(lp113
I1
aa(lp114
I1
aa(lp115
I0
aI1
aa(lp116
I0
aI1
aa(lp117
I0
aI1
aa(lp118
I0
aI1
aa(lp119
I1
aa(lp120
I1
aa(lp121
I1
aa(lp122
I0
aI1
aa(lp123
I1
aa(lp124
I1
aa(lp125
I1
aa(lp126
I0
aI1
aa(lp127
I0
aI1
aI3
aa(lp128
I1
aa(lp129
I0
aI1
aa(lp130
I1
aa(lp131
I1
aa(lp132
I1
aa(lp133
I1
aa(lp134
I0
aI1
aa(lp135
I1
aa(lp136
I0
aI1
aa(lp137
I1
aa(lp138
I0
aI1
aI3
aa(lp139
I1
aI3
aa(lp140
I0
aI1
aa(lp141
I1
aI4
aa(lp142
I0
aI1
aa(lp143
I1
aa(lp144
I1
aa(lp145
I0
aI1
aa(lp146
I0
aI1
aa(lp147
I1
aa(lp148
I1
aa(lp149
I1
aI3
aa(lp150
I1
aa(lp151
I0
aI1
aa(lp152
I0
aI1
aa(lp153
I1
aI3
aa(lp154
I1
aI3
aa(lp155
I1
aa(lp156
I0
aI1
aa(lp157
I0
aI1
aI3
aa(lp158
I1
aa(lp159
I0
aI1
aa(lp160
I1
aa(lp161
I1
aa(lp162
I1
aa(lp163
I0
aI1
aa(lp164
I1
aa(lp165
I1
aa(lp166
I0
aI1
aa(lp167
I1
aa(lp168
I0
aI1
aa(lp169
I1
aa(lp170
I1
aa(lp171
I0
aI1
aa(lp172
I0
aI1
aa(lp173
I0
aI1
aa(lp174
I1
aa(lp175
I0
aI1
aa(lp176
I0
aI1
aa(lp177
I1
aa(lp178
I0
aI1
aa(lp179
I0
aI1
aa(lp180
I0
aI1
aa(lp181
I1
aa(lp182
I0
aI1
aa(lp183
I1
aa(lp184
I1
aa(lp185
I1
aa(lp186
I1
aa(lp187
I1
aa(lp188
I1
aa(lp189
I1
aa(lp190
I0
aI1
aa(lp191
I1
aa(lp192
I0
aI1
aa(lp193
I1
aa(lp194
I0
aI1
aa(lp195
I0
aI1
aa(lp196
I1
aI4
aa(lp197
I0
aI1
aa(lp198
I0
aI1
aa(lp199
I0
aI1
aa(lp200
I1
aa(lp201
I1
aa(lp202
I0
aI1
aa(lp203
I0
aI1
aI3
aa(lp204
I1
aa(lp205
I0
aI1
aa(lp206
I1
aa(lp207
I0
aI1
aa(lp208
I0
aI1
aa(lp209
I1
aa(lp210
I1
aa(lp211
I0
aI1
aa(lp212
I0
aI1
aI4
aa(lp213
I1
aa(lp214
I0
aI1
aa(lp215
I0
aI1
aa(lp216
I1
aa(lp217
I1
aa(lp218
I0
aI1
aa(lp219
I0
aI1
aa(lp220
I0
aI1
aa(lp221
I0
aI1
aa(lp222
I0
aI1
aa(lp223
I0
aI1
aa(lp224
I1
aa(lp225
I0
aI1
aa(lp226
I0
aI1
aa(lp227
I1
aa(lp228
I0
aI1
aa(lp229
I1
aa(lp230
I1
aa(lp231
I0
aI1
aa(lp232
I0
aI1
aa(lp233
I0
aI1
aa(lp234
I0
aI1
aa(lp235
I0
aI1
aa(lp236
I1
aa(lp237
I1
aa(lp238
I0
aI1
aa(lp239
I0
aI1
aa(lp240
I0
aI1
aa(lp241
I1
aI4
aa(lp242
I0
aI1
aI3
aa(lp243
I0
aI1
aa(lp244
I0
aI1
aa(lp245
I0
aI1
aa(lp246
I1
aa(lp247
I0
aI1
aa(lp248
I0
aI1
aa(lp249
I1
aa(lp250
I1
aa(lp251
I1
aa(lp252
I0
aI1
aa(lp253
I1
aa(lp254
I1
aa(lp255
I1
aa(lp256
I0
aI1
aa(lp257
I0
aI1
aa(lp258
I0
aI1
aa(lp259
I0
aI1
aa(lp260
I0
aI1
aa(lp261
I0
aI1
aI3
aa(lp262
I1
aI3
aa(lp263
I0
aI1
aa(lp264
I1
aa(lp265
I0
aI1
aa(lp266
I0
aI1
aa(lp267
I0
aI1
aa(lp268
I1
aa(lp269
I0
aI1
aa(lp270
I0
aI1
aa(lp271
I0
aI1
aa(lp272
I0
aI1
aa(lp273
I0
aI1
aa(lp274
I1
aa(lp275
I0
aI1
aa(lp276
I0
aI1
aa(lp277
I0
aI1
aa(lp278
I0
aI1
aa(lp279
I0
aI1
aa(lp280
I0
aI1
aa(lp281
I1
aa(lp282
I0
aI1
aa(lp283
I0
aI1
aa(lp284
I0
aI1
aa(lp285
I0
aI1
aa(lp286
I1
aI3
aa(lp287
I1
aa(lp288
I0
aI1
aa(lp289
I1
aa(lp290
I0
aI1
aa(lp291
I0
aI1
aa(lp292
I0
aI1
aa(lp293
I0
aI1
aa(lp294
I0
aI1
aa(lp295
I0
aI1
aa(lp296
I1
aa(lp297
I1
aI3
aa(lp298
I1
aI3
aa(lp299
I1
aa(lp300
I1
aa(lp301
I0
aI1
aa(lp302
I0
aI1
aa(lp303
I1
aI3
aa(lp304
I0
aI1
aa(lp305
I1
aa(lp306
I0
aI1
aa(lp307
I1
aa(lp308
I1
aa(lp309
I0
aI1
aa(lp310
I0
aI1
aa(lp311
I0
aI1
aa(lp312
I1
aa(lp313
I0
aI1
aa(lp314
I0
aI1
aa(lp315
I0
aI1
aa(lp316
I1
aa(lp317
I0
aI1
aa(lp318
I1
aa(lp319
I0
aI1
aa(lp320
I1
aa(lp321
I0
aI1
aa(lp322
I1
aa(lp323
I0
aI1
aa(lp324
I1
aa(lp325
I0
aI1
aa(lp326
I0
aI1
aa(lp327
I0
aI1
aa(lp328
I0
aI1
aa(lp329
I1
aa(lp330
I1
aI3
aa(lp331
I1
aa(lp332
I0
aI1
aa(lp333
I1
aa(lp334
I1
aa(lp335
I1
aa(lp336
I1
aI3
aa(lp337
I0
aI1
aa(lp338
I0
aI1
aa(lp339
I1
aa(lp340
I0
aI1
aa(lp341
I1
aI3
aa(lp342
I1
aa(lp343
I0
aI1
aa(lp344
I0
aI1
aa(lp345
I0
aI1
aa(lp346
I0
aI1
aa(lp347
I1
aa(lp348
I0
aI1
aa(lp349
I1
aa(lp350
I0
aI1
aa(lp351
I0
aI1
aa(lp352
I1
aa(lp353
I0
aI1
aa(lp354
I0
aI1
aa(lp355
I0
aI1
aa(lp356
I0
aI1
aa(lp357
I0
aI1
aa(lp358
I0
aI1
aa(lp359
I1
aI4
aa(lp360
I0
aI1
aa(lp361
I0
aI1
aa(lp362
I0
aI1
aa(lp363
I0
aI1
aa(lp364
I0
aI1
aa(lp365
I0
aI1
aa(lp366
I0
aI1
aa(lp367
I0
aI1
aa(lp368
I0
aI1
aI3
aa(lp369
I1
aa(lp370
I0
aI1
aa(lp371
I1
aa(lp372
I0
aI1
aa(lp373
I0
aI1
aa(lp374
I1
aa(lp375
I0
aI1
aa(lp376
I0
aI1
aa(lp377
I0
aI1
aa(lp378
I0
aI1
aa(lp379
I1
aa(lp380
I0
aI1
aa(lp381
I0
aI1
aa(lp382
I1
aa(lp383
I0
aI1
aa(lp384
I0
aI1
aa(lp385
I0
aI1
aa(lp386
I0
aI1
aa(lp387
I0
aI1
aa(lp388
I0
aI1
aa(lp389
I0
aI1
aa(lp390
I1
aa(lp391
I0
aI1
aa(lp392
I0
aI1
aa(lp393
I0
aI1
aa(lp394
I0
aI1
aa(lp395
I0
aI1
aI3
aa(lp396
I0
aI1
aa(lp397
I0
aI1
aa(lp398
I0
aI1
aa(lp399
I0
aI1
aa(lp400
I1
aa(lp401
I0
aI1
aa(lp402
I0
aI1
aa(lp403
I1
aa(lp404
I0
aI1
aa(lp405
I1
aa(lp406
I1
aa(lp407
I1
aa(lp408
I0
aI1
aa(lp409
I0
aI1
aa(lp410
I0
aI1
aa(lp411
I0
aI1
aa(lp412
I1
aa(lp413
I0
aI1
aa(lp414
I0
aI1
aa(lp415
I0
aI1
aa(lp416
I0
aI1
aa(lp417
I0
aI1
aa(lp418
I0
aI1
aa(lp419
I0
aI1
aa(lp420
I0
aI1
aa(lp421
I1
aa(lp422
I0
aI1
aa(lp423
I1
aa(lp424
I1
aa(lp425
I1
aa(lp426
I1
aa(lp427
I0
aI1
aa(lp428
I0
aI1
aa(lp429
I0
aI1
aI3
aa(lp430
I1
aa(lp431
I0
aI1
aa(lp432
I1
aa(lp433
I0
aI1
aa(lp434
I1
aa(lp435
I1
aa(lp436
I1
aa(lp437
I0
aI1
aa(lp438
I0
aI1
aa(lp439
I0
aI1
aa(lp440
I0
aI1
aa(lp441
I1
aa(lp442
I0
aI1
aa(lp443
I0
aI1
aa(lp444
I0
aI1
aa(lp445
I0
aI1
aa(lp446
I1
aa(lp447
I0
aI1
aa(lp448
I0
aI1
aa(lp449
I0
aI1
aa(lp450
I1
aa(lp451
I0
aI1
aa(lp452
I0
aI1
aa(lp453
I1
aa(lp454
I1
aa(lp455
I1
aa(lp456
I1
aa(lp457
I1
aa(lp458
I0
aI1
aa(lp459
I1
aa(lp460
I1
aa(lp461
I1
aa(lp462
I1
aa(lp463
I4
aa(lp464
I4
aa(lp465
I4
aa(lp466
I4
aa(lp467
I4
aa(lp468
I4
aa(lp469
I4
aa(lp470
I4
aa(lp471
I4
aa(lp472
I4
aa(lp473
I4
aa(lp474
I4
aa(lp475
I4
aa(lp476
I4
aa(lp477
I3
aI4
aa(lp478
I4
aa(lp479
I4
aa(lp480
I3
aI4
aa(lp481
I4
aa(lp482
I4
aa(lp483
I4
aa(lp484
I4
aa(lp485
I4
aa(lp486
I4
aa(lp487
I4
aa(lp488
I4
aa(lp489
I4
aa(lp490
I4
aa(lp491
I4
aa(lp492
I4
aa(lp493
I4
aa(lp494
I4
aa(lp495
I4
aa(lp496
I4
aa(lp497
I4
aa(lp498
I0
aI4
aa(lp499
I4
aa(lp500
I4
aa(lp501
I0
aI4
aa(lp502
I4
aa(lp503
I4
aa(lp504
I4
aa(lp505
I4
aa(lp506
I4
aa(lp507
I4
aa(lp508
I4
aa(lp509
I4
aa(lp510
I4
aa(lp511
I4
aa(lp512
I4
aa(lp513
I4
aa(lp514
I4
aa(lp515
I4
aa(lp516
I4
aa(lp517
I4
aa(lp518
I4
aa(lp519
I4
aa(lp520
I4
aa(lp521
I4
aa(lp522
I4
aa(lp523
I4
aa(lp524
I4
aa(lp525
I4
aa(lp526
I4
aa(lp527
I4
aa(lp528
I4
aa(lp529
I4
aa(lp530
I4
aa(lp531
I4
aa(lp532
I4
aa(lp533
I3
aI4
aa(lp534
I0
aI4
aa(lp535
I4
aa(lp536
I4
aa(lp537
I0
aI4
aa(lp538
I4
aa(lp539
I4
aa(lp540
I4
aa(lp541
I4
aa(lp542
I3
aI4
aa(lp543
I4
aa(lp544
I4
aa(lp545
I4
aa(lp546
I4
aa(lp547
I4
aa(lp548
I4
aa(lp549
I3
aI4
aa(lp550
I4
aa(lp551
I4
aa(lp552
I4
aa(lp553
I4
aa(lp554
I0
aI4
aa(lp555
I4
aa(lp556
I4
aa(lp557
I3
aI4
aa(lp558
I4
aa(lp559
I4
aa(lp560
I4
aa(lp561
I4
aa(lp562
I4
aa(lp563
I4
aa(lp564
I4
aa(lp565
I4
aa(lp566
I4
aa(lp567
I4
aa(lp568
I4
aa(lp569
I4
aa(lp570
I4
aa(lp571
I4
aa(lp572
I4
aa(lp573
I4
aa(lp574
I0
aI4
aa(lp575
I4
aa(lp576
I4
aa(lp577
I0
aI4
aa(lp578
I4
aa(lp579
I4
aa(lp580
I4
aa(lp581
I4
aa(lp582
I4
aa(lp583
I4
aa(lp584
I3
aI4
aa(lp585
I4
aa(lp586
I4
aa(lp587
I4
aa(lp588
I4
aa(lp589
I4
aa(lp590
I4
aa(lp591
I4
aa(lp592
I4
aa(lp593
I4
aa(lp594
I4
aa(lp595
I4
aa(lp596
I1
aI4
aa(lp597
I4
aa(lp598
I4
aa(lp599
I4
aa(lp600
I4
aa(lp601
I4
aa(lp602
I4
aa(lp603
I4
aa(lp604
I4
aa(lp605
I4
aa(lp606
I4
aa(lp607
I4
aa(lp608
I4
aa(lp609
I4
aa(lp610
I4
aa(lp611
I4
aa(lp612
I4
aa(lp613
I4
aa(lp614
I4
aa(lp615
I0
aI4
aa(lp616
I4
aa(lp617
I4
aa(lp618
I0
aI4
aa(lp619
I4
aa(lp620
I4
aa(lp621
I4
aa(lp622
I4
aa(lp623
I4
aa(lp624
I4
aa(lp625
I4
aa(lp626
I3
aI4
aa(lp627
I4
aa(lp628
I4
aa(lp629
I4
aa(lp630
I4
aa(lp631
I4
aa(lp632
I4
aa(lp633
I0
aI4
aa(lp634
I4
aa(lp635
I4
aa(lp636
I4
aa(lp637
I4
aa(lp638
I4
aa(lp639
I4
aa(lp640
I4
aa(lp641
I4
aa(lp642
I4
aa(lp643
I4
aa(lp644
I4
aa(lp645
I4
aa(lp646
I4
aa(lp647
I4
aa(lp648
I0
aI4
aa(lp649
I3
aI4
aa(lp650
I4
aa(lp651
I4
aa(lp652
I4
aa(lp653
I4
aa(lp654
I4
aa(lp655
I4
aa(lp656
I4
aa(lp657
I4
aa(lp658
I4
aa(lp659
I3
aI4
aa(lp660
I4
aa(lp661
I4
aa(lp662
I4
aa(lp663
I3
aI4
aa(lp664
I4
aa(lp665
I4
aa(lp666
I4
aa(lp667
I4
aa(lp668
I3
aI4
aa(lp669
I4
aa(lp670
I3
aI4
aa(lp671
I4
aa(lp672
I4
aa(lp673
I0
aI4
aa(lp674
I4
aa(lp675
I4
aa(lp676
I4
aa(lp677
I4
aa(lp678
I4
aa(lp679
I4
aa(lp680
I4
aa(lp681
I4
aa(lp682
I4
aa(lp683
I4
aa(lp684
I4
aa(lp685
I0
aI4
aa(lp686
I0
aI4
aa(lp687
I3
aI4
aa(lp688
I4
aa(lp689
I4
aa(lp690
I4
aa(lp691
I4
aa(lp692
I4
aa(lp693
I4
aa(lp694
I4
aa(lp695
I4
aa(lp696
I4
aa(lp697
I4
aa(lp698
I4
aa(lp699
I4
aa(lp700
I4
aa(lp701
I4
aa(lp702
I4
aa(lp703
I4
aa(lp704
I4
aa(lp705
I4
aa(lp706
I4
aa(lp707
I0
aI4
aa(lp708
I4
aa(lp709
I4
aa(lp710
I4
aa(lp711
I3
aI4
aa(lp712
I4
aa(lp713
I4
aa(lp714
I4
aa(lp715
I4
aa(lp716
I4
aa(lp717
I0
aI1
aI4
aa(lp718
I4
aa(lp719
I4
aa(lp720
I4
aa(lp721
I4
aa(lp722
I4
aa(lp723
I4
aa(lp724
I4
aa(lp725
I4
aa(lp726
I4
aa(lp727
I4
aa(lp728
I1
aI4
aa(lp729
I4
aa(lp730
I4
aa(lp731
I4
aa(lp732
I4
aa(lp733
I3
aI4
aa(lp734
I3
aI4
aa(lp735
I3
aI4
aa(lp736
I4
aa(lp737
I3
aI4
aa(lp738
I4
aa(lp739
I4
aa(lp740
I3
aI4
aa(lp741
I4
aa(lp742
I4
aa(lp743
I4
aa(lp744
I4
aa(lp745
I4
aa(lp746
I3
aI4
aa(lp747
I4
aa(lp748
I3
aI4
aa(lp749
I4
aa(lp750
I4
aa(lp751
I3
aI4
aa(lp752
I4
aa(lp753
I4
aa(lp754
I4
aa(lp755
I4
aa(lp756
I4
aa(lp757
I4
aa(lp758
I4
aa(lp759
I4
aa(lp760
I4
aa(lp761
I4
aa(lp762
I4
aa(lp763
I4
aa(lp764
I4
aa(lp765
I4
aa(lp766
I4
aa(lp767
I3
aI4
aa(lp768
I0
aI4
aa(lp769
I4
aa(lp770
I4
aa(lp771
I4
aa(lp772
I4
aa(lp773
I4
aa(lp774
I4
aa(lp775
I4
aa(lp776
I4
aa(lp777
I4
aa(lp778
I4
aa(lp779
I4
aa(lp780
I4
aa(lp781
I4
aa(lp782
I4
aa(lp783
I4
aa(lp784
I4
aa(lp785
I0
aa(lp786
I4
aa(lp787
I0
aI4
aa(lp788
I4
aa(lp789
I4
aa(lp790
I4
aa(lp791
I4
aa(lp792
I4
aa(lp793
I4
aa(lp794
I4
aa(lp795
I4
aa(lp796
I3
aI4
aa(lp797
I4
aa(lp798
I4
aa(lp799
I3
aI4
aa(lp800
I4
aa(lp801
I4
aa(lp802
I4
aa(lp803
I0
aI4
aa(lp804
I0
aI4
aa(lp805
I4
aa(lp806
I4
aa(lp807
I4
aa(lp808
I4
aa(lp809
I4
aa(lp810
I4
aa(lp811
I4
aa(lp812
I4
aa(lp813
I4
aa(lp814
I4
aa(lp815
I0
aI4
aa(lp816
I4
aa(lp817
I4
aa(lp818
I4
aa(lp819
I4
aa(lp820
I4
aa(lp821
I4
aa(lp822
I3
aI4
aa(lp823
I0
aI4
aa(lp824
I3
aI4
aa(lp825
I4
aa(lp826
I4
aa(lp827
I4
aa(lp828
I0
aI4
aa(lp829
I4
aa(lp830
I4
aa(lp831
I4
aa(lp832
I4
aa(lp833
I4
aa(lp834
I0
aI4
aa(lp835
I4
aa(lp836
I1
aI4
aa(lp837
I4
aa(lp838
I4
aa(lp839
I4
aa(lp840
I4
aa(lp841
I4
aa(lp842
I4
aa(lp843
I4
aa(lp844
I4
aa(lp845
I0
aI4
aa(lp846
I4
aa(lp847
I4
aa(lp848
I4
aa(lp849
I4
aa(lp850
I4
aa(lp851
I4
aa(lp852
I4
aa(lp853
I4
aa(lp854
I4
aa(lp855
I4
aa(lp856
I1
aI4
aa(lp857
I4
aa(lp858
I4
aa(lp859
I4
aa(lp860
I4
aa(lp861
I4
aa(lp862
I4
aa(lp863
I4
aa(lp864
I4
aa(lp865
I0
aI4
aa(lp866
I4
aa(lp867
I4
aa(lp868
I4
aa(lp869
I4
aa(lp870
I4
aa(lp871
I4
aa(lp872
I4
aa(lp873
I4
aa(lp874
I4
aa(lp875
I4
aa(lp876
I4
aa(lp877
I4
aa(lp878
I4
aa(lp879
I0
aI4
aa(lp880
I4
aa(lp881
I4
aa(lp882
I4
aa(lp883
I4
aa(lp884
I4
aa(lp885
I4
aa(lp886
I4
aa(lp887
I4
aa(lp888
I4
aa(lp889
I4
aa(lp890
I4
aa(lp891
I4
aa(lp892
I4
aa(lp893
I4
aa(lp894
I1
aI4
aa(lp895
I4
aa(lp896
I4
aa(lp897
I4
aa(lp898
I4
aa(lp899
I0
aI4
aa(lp900
I4
aa(lp901
I4
aa(lp902
I4
aa(lp903
I4
aa(lp904
I4
aa(lp905
I4
aa(lp906
I4
aa(lp907
I4
aa(lp908
I4
aa(lp909
I4
aa(lp910
I4
aa(lp911
I4
aa(lp912
I4
aa(lp913
I4
aa(lp914
I4
aa(lp915
I4
aa(lp916
I4
aa(lp917
I4
aa(lp918
I4
aa(lp919
I4
aa(lp920
I0
aI4
aa(lp921
I4
aa(lp922
I0
aI4
aa(lp923
I4
aa(lp924
I4
aa(lp925
I1
aI4
aa(lp926
I4
aa(lp927
I4
aa(lp928
I4
aa(lp929
I4
aa(lp930
I4
aa(lp931
I4
aa(lp932
I4
aa(lp933
I4
aa(lp934
I4
aa(lp935
I3
aI4
aa(lp936
I4
aa(lp937
I4
aa(lp938
I4
aa(lp939
I4
aa(lp940
I4
aa(lp941
I4
aa(lp942
I3
aI4
aa(lp943
I4
aa(lp944
I4
aa(lp945
I4
aa(lp946
I4
aa(lp947
I4
aa(lp948
I4
aa(lp949
I4
aa(lp950
I4
aa(lp951
I4
aa(lp952
I4
aa(lp953
I4
aa(lp954
I4
aa(lp955
I4
aa(lp956
I4
aa(lp957
I4
aa(lp958
I4
aa(lp959
I0
aI4
aa(lp960
I4
aa(lp961
I4
aa(lp962
I4
aa(lp963
I4
aa(lp964
I4
aa(lp965
I4
aa(lp966
I4
aa(lp967
I4
aa(lp968
I4
aa(lp969
I0
aI4
aa(lp970
I4
aa(lp971
I4
aa(lp972
I4
aa(lp973
I0
aI1
aI4
aa(lp974
I4
aa(lp975
I4
aa(lp976
I4
aa(lp977
I4
aa(lp978
I4
aa(lp979
I4
aa(lp980
I4
aa(lp981
I4
aa(lp982
I3
aa(lp983
I3
aa(lp984
I0
aI3
aa(lp985
I0
aI3
aa(lp986
I3
aa(lp987
I0
aI3
aa(lp988
I0
aI3
aa(lp989
I0
aI3
aa(lp990
I3
aa(lp991
I3
aa(lp992
I0
aI3
aa(lp993
I0
aI3
aa(lp994
I3
aa(lp995
I3
aa(lp996
I0
aI3
aa(lp997
I3
aa(lp998
I0
aI3
aa(lp999
I0
aI3
aa(lp1000
I0
aI3
aa(lp1001
I3
aa(lp1002
I3
aa(lp1003
I3
aa(lp1004
I0
aI3
aa(lp1005
I0
aI3
aa(lp1006
I3
aa(lp1007
I3
aa(lp1008
I0
aI3
aa(lp1009
I0
aI3
aa(lp1010
I0
aI3
aa(lp1011
I0
aI3
aa(lp1012
I0
aI3
aa(lp1013
I0
aI3
aa(lp1014
I3
aa(lp1015
I3
aa(lp1016
I3
aa(lp1017
I0
aI3
aa(lp1018
I3
aa(lp1019
I3
aa(lp1020
I0
aI3
aa(lp1021
I3
aa(lp1022
I0
aI3
aa(lp1023
I3
aa(lp1024
I0
aI3
aa(lp1025
I0
aI3
aa(lp1026
I3
aa(lp1027
I0
aI3
aa(lp1028
I0
aI3
aa(lp1029
I0
aI3
aa(lp1030
I1
aI3
aa(lp1031
I0
aI3
aa(lp1032
I3
aa(lp1033
I3
aa(lp1034
I3
aa(lp1035
I0
aI3
aa(lp1036
I0
aI3
aa(lp1037
I1
aI3
aa(lp1038
I0
aI3
aa(lp1039
I3
aa(lp1040
I0
aI3
aa(lp1041
I1
aI3
aa(lp1042
I3
aa(lp1043
I3
aa(lp1044
I3
aa(lp1045
I0
aI3
aa(lp1046
I0
aI3
aa(lp1047
I0
aI3
aa(lp1048
I0
aI3
aa(lp1049
I3
aa(lp1050
I3
aa(lp1051
I0
aI3
aa(lp1052
I0
aI3
aa(lp1053
I0
aI3
aa(lp1054
I0
aI3
aa(lp1055
I0
aI3
aa(lp1056
I3
aa(lp1057
I0
aI3
aa(lp1058
I3
aa(lp1059
I0
aI1
aI3
aa(lp1060
I0
aI3
aa(lp1061
I0
aI1
aI3
aa(lp1062
I1
aI3
aa(lp1063
I3
aa(lp1064
I0
aI3
aa(lp1065
I3
aa(lp1066
I0
aI3
aa(lp1067
I0
aI3
aa(lp1068
I0
aI3
aa(lp1069
I0
aI3
aa(lp1070
I0
aI3
aa(lp1071
I3
aa(lp1072
I3
aa(lp1073
I3
aa(lp1074
I3
aa(lp1075
I3
aa(lp1076
I3
aa(lp1077
I3
aa(lp1078
I0
aI3
aa(lp1079
I0
aI3
aa(lp1080
I3
aa(lp1081
I0
aI3
aa(lp1082
I0
aI3
aa(lp1083
I3
aa(lp1084
I3
aa(lp1085
I3
aa(lp1086
I0
aI3
aa(lp1087
I3
aa(lp1088
I0
aI3
aa(lp1089
I1
aI3
aa(lp1090
I0
aI3
aa(lp1091
I0
aI3
aa(lp1092
I3
aa(lp1093
I0
aI3
aa(lp1094
I3
aa(lp1095
I3
aa(lp1096
I3
aa(lp1097
I3
aa(lp1098
I0
aI3
aa(lp1099
I0
aI3
aa(lp1100
I0
aI3
aa(lp1101
I3
aa(lp1102
I1
aI3
aa(lp1103
I1
aI3
aa(lp1104
I3
aa(lp1105
I0
aI1
aI3
aa(lp1106
I0
aI3
aa(lp1107
I0
aI3
aa(lp1108
I0
aI3
aa(lp1109
I0
aI1
aI3
aa(lp1110
I1
aI3
aa(lp1111
I3
aa(lp1112
I3
aa(lp1113
I0
aI3
aa(lp1114
I3
aa(lp1115
I3
aa(lp1116
I3
aa(lp1117
I3
aa(lp1118
I0
aI3
aa(lp1119
I3
aa(lp1120
I3
aa(lp1121
I0
aI3
aa(lp1122
I0
aI3
aa(lp1123
I0
aI3
aa(lp1124
I0
aI3
aa(lp1125
I3
aa(lp1126
I0
aI3
aa(lp1127
I0
aI1
aI3
aa(lp1128
I3
aa(lp1129
I3
aa(lp1130
I3
aa(lp1131
I0
aI3
aa(lp1132
I0
aI3
aa(lp1133
I3
aa(lp1134
I0
aI3
aa(lp1135
I3
aa(lp1136
I3
aa(lp1137
I0
aI3
aa(lp1138
I0
aI3
aa(lp1139
I3
aa(lp1140
I3
aa(lp1141
I3
aa(lp1142
I3
aa(lp1143
I0
aI3
aa(lp1144
I3
aa(lp1145
I0
aI3
aa(lp1146
I3
aa(lp1147
I3
aa(lp1148
I3
aa(lp1149
I0
aI3
aa(lp1150
I0
aI3
aa(lp1151
I0
aI3
aa(lp1152
I0
aI3
aa(lp1153
I3
aa(lp1154
I0
aI3
aa(lp1155
I3
aa(lp1156
I3
aa(lp1157
I3
aa(lp1158
I3
aa(lp1159
I3
aa(lp1160
I3
aa(lp1161
I3
aa(lp1162
I0
aI3
aa(lp1163
I3
aa(lp1164
I0
aI3
aa(lp1165
I3
aa(lp1166
I3
aa(lp1167
I0
aI3
aa(lp1168
I0
aI3
aa(lp1169
I0
aI3
aa(lp1170
I3
aa(lp1171
I0
aI3
aa(lp1172
I3
aa(lp1173
I0
aI3
aa(lp1174
I0
aI3
aa(lp1175
I0
aI3
aa(lp1176
I3
aa(lp1177
I3
aa(lp1178
I1
aI3
aa(lp1179
I3
aa(lp1180
I1
aI3
aa(lp1181
I0
aI3
aa(lp1182
I3
aa(lp1183
I3
aa(lp1184
I3
aa(lp1185
I3
aa(lp1186
I0
aI3
aa(lp1187
I3
aa(lp1188
I3
aa(lp1189
I0
aI3
aa(lp1190
I0
aI3
aa(lp1191
I0
aI3
aa(lp1192
I0
aI3
aa(lp1193
I3
aa(lp1194
I3
aa(lp1195
I3
aa(lp1196
I3
aa(lp1197
I0
aI1
aI3
aa(lp1198
I0
aI3
aa(lp1199
I0
aI3
aa(lp1200
I3
aa(lp1201
I0
aI3
aa(lp1202
I3
aa(lp1203
I0
aI3
aa(lp1204
I0
aI3
aa(lp1205
I0
aI3
aa(lp1206
I0
aI3
aa(lp1207
I0
aI3
aa(lp1208
I1
aI3
aa(lp1209
I3
aa(lp1210
I3
aa(lp1211
I0
aI3
aa(lp1212
I3
aa(lp1213
I0
aI3
aa(lp1214
I0
aI3
aa(lp1215
I3
aa(lp1216
I3
aa(lp1217
I3
aa(lp1218
I3
aa(lp1219
I0
aI3
aa(lp1220
I0
aI3
aa(lp1221
I0
aI3
aa(lp1222
I1
aI3
aa(lp1223
I3
aa(lp1224
I0
aI3
aa(lp1225
I3
aa(lp1226
I3
aa(lp1227
I3
aa(lp1228
I0
aI3
aa(lp1229
I3
aa(lp1230
I0
aI3
aa(lp1231
I3
aa(lp1232
I0
aI3
aa(lp1233
I0
aI3
aa(lp1234
I0
aI3
aa(lp1235
I3
aa(lp1236
I3
aa(lp1237
I0
aI3
aa(lp1238
I0
aI3
aa(lp1239
I0
aI3
aa(lp1240
I3
aa(lp1241
I3
aa(lp1242
I0
aI1
aI3
aa(lp1243
I0
aI3
aa(lp1244
I0
aI3
aa(lp1245
I0
aI3
aa(lp1246
I0
aI3
aa(lp1247
I3
aa(lp1248
I3
aa(lp1249
I0
aI3
aa(lp1250
I3
aa(lp1251
I0
aI3
aa(lp1252
I3
aa(lp1253
I0
aI3
aa(lp1254
I3
aa(lp1255
I3
aa(lp1256
I0
aI3
aa(lp1257
I0
aI3
aa(lp1258
I3
aa(lp1259
I0
aI3
aa(lp1260
I0
aI3
aa(lp1261
I3
aa(lp1262
I3
aa(lp1263
I3
aa(lp1264
I3
aa(lp1265
I0
aI3
aa(lp1266
I0
aI3
aa(lp1267
I0
aI3
aa(lp1268
I0
aI3
aa(lp1269
I3
aa(lp1270
I3
aa(lp1271
I0
aI3
aa(lp1272
I3
aa(lp1273
I1
aI3
aa(lp1274
I0
aI3
aa(lp1275
I3
aa(lp1276
I3
aa(lp1277
I3
aa(lp1278
I0
aI3
aa(lp1279
I3
aa(lp1280
I3
aa(lp1281
I3
aa(lp1282
I3
aa(lp1283
I3
aa(lp1284
I0
aI3
aa(lp1285
I0
aI3
aa(lp1286
I3
aa(lp1287
I1
aI3
aa(lp1288
I0
aI3
aa(lp1289
I0
aI3
aa(lp1290
I0
aI3
aa(lp1291
I3
aa(lp1292
I3
aa(lp1293
I0
aI3
aa(lp1294
I3
aa(lp1295
I3
aa(lp1296
I3
aa(lp1297
I0
aI3
aa(lp1298
I0
aI3
aa(lp1299
I0
aI3
aa(lp1300
I3
aa(lp1301
I0
aI1
aI3
aa(lp1302
I3
aa(lp1303
I3
aa(lp1304
I3
aa(lp1305
I0
aI3
aa(lp1306
I0
aI3
aa(lp1307
I0
aI3
aa(lp1308
I0
aI3
aa(lp1309
I0
aI3
aa(lp1310
I3
aa(lp1311
I3
aa(lp1312
I3
aa(lp1313
I0
aI3
aa(lp1314
I0
aI3
aa(lp1315
I0
aI3
aa(lp1316
I0
aI3
aa(lp1317
I3
aa(lp1318
I3
aa(lp1319
I3
aa(lp1320
I3
aa(lp1321
I3
aa(lp1322
I3
aa(lp1323
I3
aa(lp1324
I3
aa(lp1325
I3
aa(lp1326
I3
aa(lp1327
I0
aI3
aa(lp1328
I0
aI3
aa(lp1329
I0
aI3
aa(lp1330
I3
aa(lp1331
I1
aI3
aa(lp1332
I3
aa(lp1333
I0
aI3
aa(lp1334
I3
aa(lp1335
I0
aI3
aa(lp1336
I3
aa(lp1337
I0
aI3
aa(lp1338
I3
aa(lp1339
I0
aI3
aa(lp1340
I3
aa(lp1341
I3
aa(lp1342
I0
aI3
aa(lp1343
I0
aI1
aI3
aa(lp1344
I3
aa(lp1345
I3
aa(lp1346
I0
aI3
aa(lp1347
I3
aa(lp1348
I0
aI3
aa(lp1349
I3
aa(lp1350
I3
aa(lp1351
I3
aa(lp1352
I0
aI3
aa(lp1353
I0
aI3
aa(lp1354
I0
aI1
aI3
aa(lp1355
I3
aa(lp1356
I0
aI3
aa(lp1357
I3
aa(lp1358
I3
aa(lp1359
I3
aa(lp1360
I3
aa(lp1361
I0
aI3
aa(lp1362
I3
aa(lp1363
I3
aa(lp1364
I3
aa(lp1365
I3
aa(lp1366
I3
aa(lp1367
I3
aa(lp1368
I0
aI3
aa(lp1369
I3
aa(lp1370
I3
aa(lp1371
I3
aa(lp1372
I0
aI3
aa(lp1373
I3
aa(lp1374
I3
aa(lp1375
I0
aI3
aa(lp1376
I0
aI3
aa(lp1377
I3
aa(lp1378
I3
aa(lp1379
I0
aI3
aa(lp1380
I3
aa(lp1381
I3
aa(lp1382
I0
aI3
aa(lp1383
I1
aI3
aa(lp1384
I0
aI3
aa(lp1385
I0
aI3
aa(lp1386
I0
aI3
aa(lp1387
I1
aI3
aa(lp1388
I0
aI3
aa(lp1389
I3
aa(lp1390
I3
aa(lp1391
I0
aI3
aa(lp1392
I0
aI3
aa(lp1393
I0
aI3
aa(lp1394
I1
aI3
aa(lp1395
I3
aa(lp1396
I3
aa(lp1397
I3
aa(lp1398
I0
aI3
aa(lp1399
I0
aI3
aa(lp1400
I3
aa(lp1401
I0
aI3
aa(lp1402
I3
aa(lp1403
I0
aI3
aa(lp1404
I3
aa(lp1405
I0
aI3
aa(lp1406
I0
aI3
aa(lp1407
I3
aa(lp1408
I3
aa(lp1409
I0
aI3
aa(lp1410
I0
aI3
aa(lp1411
I3
aa(lp1412
I3
aa(lp1413
I0
aI3
aa(lp1414
I3
aa(lp1415
I0
aI3
aa(lp1416
I3
aa(lp1417
I0
aI3
aa(lp1418
I0
aI3
aa(lp1419
I0
aI3
aa(lp1420
I3
aa(lp1421
I0
aI3
aa(lp1422
I0
aI3
aa(lp1423
I3
aa(lp1424
I3
aa(lp1425
I3
aa(lp1426
I3
aa(lp1427
I0
aI3
aa(lp1428
I3
aa(lp1429
I3
aa(lp1430
I0
aI3
aa(lp1431
I0
aI3
aa(lp1432
I0
aI3
aa(lp1433
I0
aI3
aa(lp1434
I3
aa(lp1435
I0
aI3
aa(lp1436
I0
aI3
aa(lp1437
I3
aa(lp1438
I3
aa(lp1439
I3
aa(lp1440
I1
aI3
aa(lp1441
I0
aI3
aa(lp1442
I3
aa(lp1443
I0
aI3
aa(lp1444
I0
aI3
aa(lp1445
I0
aI3
aa(lp1446
I0
aI3
aa(lp1447
I3
aa(lp1448
I3
aa(lp1449
I0
aI3
aa(lp1450
I3
aa(lp1451
I0
aI3
aa(lp1452
I0
aI3
aa(lp1453
I0
aI3
aa(lp1454
I3
aa(lp1455
I0
aI3
aa(lp1456
I3
aa(lp1457
I0
aI3
aa(lp1458
I3
aa(lp1459
I3
aa(lp1460
I0
aI3
aa(lp1461
I3
aa(lp1462
I1
aI3
aa(lp1463
I3
aa(lp1464
I3
aa(lp1465
I3
aa(lp1466
I0
aI3
aa(lp1467
I3
aa(lp1468
I3
aa(lp1469
I0
aI3
aa(lp1470
I2
aa(lp1471
I2
aa(lp1472
I2
aa(lp1473
I2
aa(lp1474
I2
aa(lp1475
I2
aa(lp1476
I2
aa(lp1477
I2
aa(lp1478
I2
aa(lp1479
I2
aa(lp1480
I2
aa(lp1481
I2
aa(lp1482
I2
aa(lp1483
I2
aa(lp1484
I2
aa(lp1485
I2
aI3
aa(lp1486
I2
aa(lp1487
I2
aI3
aa(lp1488
I2
aa(lp1489
I2
aa(lp1490
I2
aa(lp1491
I2
aa(lp1492
I2
aa(lp1493
I2
aa(lp1494
I2
aa(lp1495
I2
aa(lp1496
I2
aa(lp1497
I2
aI3
aa(lp1498
I2
aa(lp1499
I2
aa(lp1500
I2
aa(lp1501
I2
aa(lp1502
I2
aa(lp1503
I2
aa(lp1504
I2
aa(lp1505
I2
aa(lp1506
I2
aa(lp1507
I2
aa(lp1508
I2
aa(lp1509
I2
aa(lp1510
I2
aa(lp1511
I2
aa(lp1512
I2
aa(lp1513
I2
aa(lp1514
I2
aa(lp1515
I2
aa(lp1516
I2
aa(lp1517
I2
aa(lp1518
I2
aa(lp1519
I2
aa(lp1520
I2
aa(lp1521
I2
aI4
aa(lp1522
I2
aa(lp1523
I2
aa(lp1524
I2
aa(lp1525
I2
aa(lp1526
I2
aa(lp1527
I2
aa(lp1528
I2
aa(lp1529
I2
aa(lp1530
I2
aa(lp1531
I2
aI3
aa(lp1532
I2
aI3
aa(lp1533
I2
aI3
aa(lp1534
I2
aa(lp1535
I2
aI3
aa(lp1536
I2
aa(lp1537
I2
aa(lp1538
I2
aa(lp1539
I2
aa(lp1540
I2
aa(lp1541
I2
aa(lp1542
I2
aa(lp1543
I2
aa(lp1544
I2
aa(lp1545
I2
aa(lp1546
I2
aa(lp1547
I2
aa(lp1548
I2
aa(lp1549
I2
aa(lp1550
I2
aI3
aa(lp1551
I2
aa(lp1552
I2
aa(lp1553
I2
aa(lp1554
I2
aa(lp1555
I2
aa(lp1556
I2
aa(lp1557
I2
aa(lp1558
I2
aI4
aa(lp1559
I2
aa(lp1560
I2
aa(lp1561
I2
aa(lp1562
I2
aa(lp1563
I2
aa(lp1564
I2
aa(lp1565
I2
aa(lp1566
I2
aa(lp1567
I2
aI3
aa(lp1568
I2
aa(lp1569
I2
aa(lp1570
I2
aa(lp1571
I2
aa(lp1572
I2
aa(lp1573
I2
aI3
aa(lp1574
I2
aa(lp1575
I2
aa(lp1576
I2
aa(lp1577
I2
aa(lp1578
I2
aa(lp1579
I2
aa(lp1580
I2
aa(lp1581
I2
aa(lp1582
I2
aa(lp1583
I2
aa(lp1584
I2
aa(lp1585
I2
aa(lp1586
I2
aa(lp1587
I2
aa(lp1588
I2
aa(lp1589
I2
aa(lp1590
I2
aa(lp1591
I2
aa(lp1592
I2
aa(lp1593
I2
aa(lp1594
I2
aa(lp1595
I2
aa(lp1596
I2
aa(lp1597
I2
aa(lp1598
I2
aa(lp1599
I2
aa(lp1600
I2
aa(lp1601
I2
aI3
aa(lp1602
I2
aa(lp1603
I2
aa(lp1604
I2
aa(lp1605
I2
aa(lp1606
I2
aa(lp1607
I2
aa(lp1608
I2
aa(lp1609
I2
aa(lp1610
I2
aa(lp1611
I2
aa(lp1612
I2
aa(lp1613
I2
aa(lp1614
I2
aa(lp1615
I1
aI2
aa(lp1616
I2
aa(lp1617
I2
aa(lp1618
I2
aa(lp1619
I2
aa(lp1620
I2
aa(lp1621
I2
aa(lp1622
I2
aa(lp1623
I2
aa(lp1624
I2
aa(lp1625
I2
aa(lp1626
I2
aa(lp1627
I2
aa(lp1628
I2
aa(lp1629
I2
aa(lp1630
I2
aa(lp1631
I2
aa(lp1632
I2
aa(lp1633
I2
aa(lp1634
I2
aa(lp1635
I2
aa(lp1636
I2
aI3
aa(lp1637
I2
aa(lp1638
I2
aa(lp1639
I2
aa(lp1640
I1
aI2
aa(lp1641
I2
aa(lp1642
I2
aI3
aa(lp1643
I2
aa(lp1644
I2
aa(lp1645
I2
aa(lp1646
I2
aa(lp1647
I2
aa(lp1648
I2
aa(lp1649
I2
aa(lp1650
I2
aa(lp1651
I2
aa(lp1652
I2
aa(lp1653
I2
aa(lp1654
I2
aa(lp1655
I2
aa(lp1656
I2
aa(lp1657
I2
aa(lp1658
I2
aa(lp1659
I2
aa(lp1660
I2
aa(lp1661
I2
aa(lp1662
I2
aa(lp1663
I2
aa(lp1664
I2
aa(lp1665
I2
aa(lp1666
I2
aa(lp1667
I2
aa(lp1668
I2
aa(lp1669
I2
aa(lp1670
I2
aa(lp1671
I2
aa(lp1672
I2
aa(lp1673
I2
aa(lp1674
I2
aa(lp1675
I2
aa(lp1676
I2
aa(lp1677
I2
aa(lp1678
I2
aa(lp1679
I2
aa(lp1680
I2
aa(lp1681
I2
aa(lp1682
I2
aa(lp1683
I2
aa(lp1684
I2
aI3
aa(lp1685
I2
aa(lp1686
I2
aa(lp1687
I2
aa(lp1688
I2
aa(lp1689
I2
aa(lp1690
I2
aa(lp1691
I2
aa(lp1692
I2
aa(lp1693
I2
aa(lp1694
I2
aa(lp1695
I2
aa(lp1696
I2
aI3
aa(lp1697
I2
aa(lp1698
I2
aa(lp1699
I2
aa(lp1700
I2
aa(lp1701
I2
aa(lp1702
I2
aa(lp1703
I2
aa(lp1704
I2
aa(lp1705
I2
aa(lp1706
I2
aa(lp1707
I2
aa(lp1708
I2
aa(lp1709
I2
aI3
aa(lp1710
I2
aa(lp1711
I2
aa(lp1712
I2
aa(lp1713
I2
aa(lp1714
I2
aa(lp1715
I2
aa(lp1716
I2
aa(lp1717
I2
aa(lp1718
I2
aI3
aa(lp1719
I2
aa(lp1720
I1
aI2
aa(lp1721
I2
aa(lp1722
I2
aa(lp1723
I2
aa(lp1724
I2
aa(lp1725
I2
aI4
aa(lp1726
I0
aI2
aa(lp1727
I2
aa(lp1728
I2
aa(lp1729
I2
aa(lp1730
I2
aa(lp1731
I2
aa(lp1732
I2
aa(lp1733
I2
aa(lp1734
I2
aa(lp1735
I2
aa(lp1736
I2
aa(lp1737
I2
aa(lp1738
I2
aI4
aa(lp1739
I2
aa(lp1740
I2
aa(lp1741
I2
aa(lp1742
I2
aa(lp1743
I2
aa(lp1744
I2
aI3
aa(lp1745
I2
aa(lp1746
I2
aa(lp1747
I2
aI3
aa(lp1748
I2
aa(lp1749
I2
aa(lp1750
I2
aa(lp1751
I2
aa(lp1752
I2
aa(lp1753
I2
aa(lp1754
I2
aa(lp1755
I2
aa(lp1756
I2
aa(lp1757
I2
aa(lp1758
I2
aa(lp1759
I2
aa(lp1760
I2
aa(lp1761
I2
aa(lp1762
I2
aa(lp1763
I2
aa(lp1764
I2
aa(lp1765
I2
aa(lp1766
I2
aa(lp1767
I2
aa(lp1768
I2
aa(lp1769
I2
aa(lp1770
I2
aa(lp1771
I2
aa(lp1772
I2
aa(lp1773
I2
aa(lp1774
I2
aa(lp1775
I2
aa(lp1776
I2
aa(lp1777
I2
aa(lp1778
I2
aa(lp1779
I2
aa(lp1780
I2
aa(lp1781
I2
aa(lp1782
I2
aa(lp1783
I2
aa(lp1784
I2
aa(lp1785
I2
aa(lp1786
I2
aa(lp1787
I2
aa(lp1788
I2
aa(lp1789
I2
aI3
aa(lp1790
I2
aa(lp1791
I2
aa(lp1792
I2
aa(lp1793
I2
aa(lp1794
I2
aa(lp1795
I2
aa(lp1796
I2
aa(lp1797
I2
aa(lp1798
I2
aa(lp1799
I2
aa(lp1800
I2
aa(lp1801
I2
aa(lp1802
I2
aI4
aa(lp1803
I2
aa(lp1804
I2
aa(lp1805
I2
aa(lp1806
I2
aa(lp1807
I2
aI3
aa(lp1808
I2
aa(lp1809
I2
aa(lp1810
I2
aa(lp1811
I2
aa(lp1812
I2
aa(lp1813
I2
aa(lp1814
I2
aa(lp1815
I2
aa(lp1816
I2
aa(lp1817
I2
aa(lp1818
I2
aa(lp1819
I2
aa(lp1820
I2
aa(lp1821
I2
aa(lp1822
I2
aa(lp1823
I2
aa(lp1824
I2
aa(lp1825
I2
aa(lp1826
I2
aa(lp1827
I2
aa(lp1828
I2
aa(lp1829
I2
aa(lp1830
I2
aa(lp1831
I2
aa(lp1832
I2
aa(lp1833
I2
aa(lp1834
I2
aa(lp1835
I2
aa(lp1836
I2
aa(lp1837
I2
aa(lp1838
I2
aa(lp1839
I2
aa(lp1840
I2
aa(lp1841
I2
aa(lp1842
I2
aa(lp1843
I2
aI4
aa(lp1844
I2
aa(lp1845
I2
aa(lp1846
I2
aa(lp1847
I2
aa(lp1848
I2
aa(lp1849
I2
aa(lp1850
I2
aa(lp1851
I2
aI3
aa(lp1852
I2
aa(lp1853
I2
aa(lp1854
I2
aa(lp1855
I2
aa(lp1856
I2
aa(lp1857
I2
aa(lp1858
I2
aa(lp1859
I2
aa(lp1860
I2
aa(lp1861
I2
aa(lp1862
I2
aa(lp1863
I2
aa(lp1864
I2
aI3
aa(lp1865
I2
aa(lp1866
I2
aa(lp1867
I2
aa(lp1868
I2
aa(lp1869
I2
aa(lp1870
I2
aa(lp1871
I2
aa(lp1872
I2
aa(lp1873
I2
aa(lp1874
I2
aa(lp1875
I2
aa(lp1876
I2
aa(lp1877
I2
aa(lp1878
I2
aa(lp1879
I2
aa(lp1880
I2
aa(lp1881
I2
aI4
aa(lp1882
I2
aa(lp1883
I2
aa(lp1884
I2
aa(lp1885
I2
aa(lp1886
I2
aa(lp1887
I2
aa(lp1888
I2
aa(lp1889
I2
aa(lp1890
I2
aa(lp1891
I2
aa(lp1892
I2
aa(lp1893
I2
aa(lp1894
I2
aa(lp1895
I2
aa(lp1896
I2
aa(lp1897
I2
aa(lp1898
I2
aa(lp1899
I2
aa(lp1900
I2
aa(lp1901
I2
aa(lp1902
I2
aa(lp1903
I2
aa(lp1904
I2
aa(lp1905
I2
aa(lp1906
I2
aI4
aa(lp1907
I2
aa(lp1908
I2
aa(lp1909
I2
aa(lp1910
I2
aa(lp1911
I2
aa(lp1912
I2
aa(lp1913
I2
aa(lp1914
I2
aa(lp1915
I2
aa(lp1916
I2
aa(lp1917
I2
aa(lp1918
I2
aa(lp1919
I2
aa(lp1920
I2
aa(lp1921
I2
aa(lp1922
I2
aa(lp1923
I2
aa(lp1924
I2
aa(lp1925
I2
aa(lp1926
I2
aa(lp1927
I2
aI4
aa(lp1928
I2
aa(lp1929
I2
aa(lp1930
I2
aa(lp1931
I2
aa(lp1932
I2
aa(lp1933
I2
aa(lp1934
I2
aa(lp1935
I2
aa(lp1936
I2
aa(lp1937
I2
aa(lp1938
I2
aa(lp1939
I2
aa(lp1940
I2
aa(lp1941
I2
aa(lp1942
I2
aa(lp1943
I2
aa(lp1944
I2
aa(lp1945
I2
aa(lp1946
I2
aa(lp1947
I2
aa(lp1948
I2
aa(lp1949
I2
aa(lp1950
I2
aa(lp1951
I2
aa(lp1952
I2
aa(lp1953
I1
aI2
aa(lp1954
I2
aI3
aa(lp1955
I2
aa(lp1956
I2
aa(lp1957
I2
aa(lp1958
I2
aa(lp1959
I2
aa(lp1960
I2
aa(lp1961
I2
aa(lp1962
I2
aa(lp1963
I1
aI2
aa(lp1964
I2
aa(lp1965
I2
aa(lp1966
I2
aa(lp1967
I2
aa(lp1968
I2
aa(lp1969
I2
aa(lp1970
I2
aa(lp1971
I2
aa(lp1972
I2
aa(lp1973
I2
aa(lp1974
I2
aa(lp1975
I2
aa(lp1976
I2
aa(lp1977
I2
aa(lp1978
I2
aa(lp1979
I2
aa(lp1980
I0
aI3
aa(lp1981
I0
aI3
aa(lp1982
I0
aI3
aa(lp1983
I3
aa(lp1984
I0
aI3
aa(lp1985
I0
aI3
aa(lp1986
I0
aI3
aa(lp1987
I0
aa(lp1988
I0
aa(lp1989
I0
aI3
aa(lp1990
I3
aa(lp1991
I4
aa(lp1992
I3
aa(lp1993
I0
aI3
aa(lp1994
I4
aa(lp1995
I3
aa(lp1996
I0
aa(lp1997
I0
aI3
aa(lp1998
I0
aa(lp1999
I3
aa(lp2000
I0
aa(lp2001
I0
aI1
aa(lp2002
I0
aI3
aa(lp2003
I0
aI3
aa(lp2004
I3
aa(lp2005
I0
aI4
aa(lp2006
I0
aa(lp2007
I3
aa(lp2008
I0
aI3
aa(lp2009
I0
aa(lp2010
I1
aI4
aa(lp2011
I4
aa(lp2012
I0
aI3
aa(lp2013
I0
aa(lp2014
I0
aI3
aa(lp2015
I0
aI3
aa(lp2016
I0
aa(lp2017
I0
aa(lp2018
I0
aa(lp2019
I0
aI3
aa(lp2020
I0
aI3
aa(lp2021
I3
aa(lp2022
I0
aa(lp2023
I0
aI3
aa(lp2024
I0
aI3
aa(lp2025
I0
aI3
aa(lp2026
I4
aa(lp2027
I0
aI3
aa(lp2028
I0
aI3
aa(lp2029
I0
aI3
aa(lp2030
I0
aa(lp2031
I0
aI3
aa(lp2032
I0
aa(lp2033
I0
aI3
aa(lp2034
I3
aI4
aa(lp2035
I0
aI4
aa(lp2036
I0
aa(lp2037
I4
aa(lp2038
I0
aI3
aa(lp2039
I0
aa(lp2040
I0
aa(lp2041
I3
aI4
aa(lp2042
I0
aa(lp2043
I0
aa(lp2044
I4
aa(lp2045
I0
aa(lp2046
I0
aa(lp2047
I0
aa(lp2048
I0
aI3
aa(lp2049
I0
aI1
aI4
aa(lp2050
I4
aa(lp2051
I3
aa(lp2052
I0
aI3
aa(lp2053
I0
aa(lp2054
I0
aI4
aa(lp2055
I3
aa(lp2056
I0
aI3
aa(lp2057
I3
aa(lp2058
I0
aa(lp2059
I0
aI1
aa(lp2060
I0
aa(lp2061
I4
aa(lp2062
I3
aa(lp2063
I0
aI3
aa(lp2064
I0
aa(lp2065
I0
aI3
aa(lp2066
I0
aI3
aa(lp2067
I4
aa(lp2068
I4
aa(lp2069
I0
aI3
aa(lp2070
I0
aI4
aa(lp2071
I0
aI4
aa(lp2072
I0
aa(lp2073
I0
aI1
aa(lp2074
I3
aa(lp2075
I4
aa(lp2076
I0
aI4
aa(lp2077
I0
aI3
aa(lp2078
I0
aa(lp2079
I0
aI3
aa(lp2080
I0
aa(lp2081
I3
aa(lp2082
I0
aI4
aa(lp2083
I4
aa(lp2084
I0
aa(lp2085
I0
aI3
aa(lp2086
I0
aI1
aa(lp2087
I0
aa(lp2088
I0
aa(lp2089
I3
aa(lp2090
I0
aa(lp2091
I0
aI1
aa(lp2092
I1
aa(lp2093
I3
aa(lp2094
I0
aa(lp2095
I3
aa(lp2096
I0
aI3
aa(lp2097
I0
aa(lp2098
I0
aI3
aa(lp2099
I0
aI4
aa(lp2100
I0
aI3
aa(lp2101
I0
aa(lp2102
I0
aI3
aa(lp2103
I0
aa(lp2104
I0
aI1
aa(lp2105
I0
aa(lp2106
I1
aa(lp2107
I3
aa(lp2108
I0
aI3
aa(lp2109
I3
aa(lp2110
I4
aa(lp2111
I0
aI1
aa(lp2112
I3
aa(lp2113
I0
aI3
aa(lp2114
I1
aa(lp2115
I0
aa(lp2116
I0
aa(lp2117
I0
aa(lp2118
I0
aa(lp2119
I4
aa(lp2120
I0
aa(lp2121
I3
aa(lp2122
I0
aa(lp2123
I0
aa(lp2124
I3
aa(lp2125
I0
aa(lp2126
I0
aI3
aa(lp2127
I0
aa(lp2128
I0
aI3
aa(lp2129
I0
aa(lp2130
I3
aa(lp2131
I3
aa(lp2132
I3
aa(lp2133
I0
aa(lp2134
I0
aa(lp2135
I0
aI3
aa(lp2136
I0
aI3
aa(lp2137
I0
aa(lp2138
I4
aa(lp2139
I0
aI3
aa(lp2140
I0
aa(lp2141
I3
aa(lp2142
I3
aa(lp2143
I0
aa(lp2144
I0
aa(lp2145
I0
aa(lp2146
I0
aa(lp2147
I0
aI3
aa(lp2148
I0
aa(lp2149
I0
aa(lp2150
I0
aa(lp2151
I3
aa(lp2152
I0
aI3
aa(lp2153
I0
aI4
aa(lp2154
I3
aI4
aa(lp2155
I0
aI3
aa(lp2156
I3
aI4
aa(lp2157
I0
aa(lp2158
I1
aa(lp2159
I0
aI3
aa(lp2160
I0
aI3
aa(lp2161
I3
aa(lp2162
I0
aI3
aa(lp2163
I0
aa(lp2164
I0
aa(lp2165
I0
aI3
aa(lp2166
I0
aI1
aa(lp2167
I0
aa(lp2168
I3
aa(lp2169
I0
aI3
aa(lp2170
I0
aa(lp2171
I0
aa(lp2172
I0
aa(lp2173
I0
aI3
aa(lp2174
I0
aa(lp2175
I0
aa(lp2176
I0
aa(lp2177
I4
aa(lp2178
I0
aI4
aa(lp2179
I3
aI4
aa(lp2180
I0
aa(lp2181
I4
aa(lp2182
I4
aa(lp2183
I3
aa(lp2184
I3
aa(lp2185
I0
aa(lp2186
I0
aa(lp2187
I0
aa(lp2188
I0
aI3
aa(lp2189
I3
aa(lp2190
I4
aa(lp2191
I3
aa(lp2192
I0
aa(lp2193
I3
aa(lp2194
I0
aI3
aa(lp2195
I0
aa(lp2196
I0
aI3
aa(lp2197
I0
aI3
aa(lp2198
I0
aa(lp2199
I3
aa(lp2200
I3
aa(lp2201
I3
aI4
aa(lp2202
I3
aI4
aa(lp2203
I0
aI4
aa(lp2204
I0
aI4
aa(lp2205
I0
aI3
aa(lp2206
I0
aI1
aa(lp2207
I4
aa(lp2208
I1
aa(lp2209
I0
aa(lp2210
I0
aI3
aa(lp2211
I0
aa(lp2212
I1
aI3
aa(lp2213
I0
aI3
aa(lp2214
I0
aI3
aa(lp2215
I0
aa(lp2216
I0
aa(lp2217
I3
aa(lp2218
I0
aI3
aa(lp2219
I0
aa(lp2220
I3
aa(lp2221
I0
aa(lp2222
I0
aa(lp2223
I3
aa(lp2224
I0
aa(lp2225
I3
aa(lp2226
I3
aa(lp2227
I3
aa(lp2228
I0
aI3
aa(lp2229
I3
aa(lp2230
I0
aa(lp2231
I4
aa(lp2232
I3
aa(lp2233
I0
aa(lp2234
I3
aa(lp2235
I0
aa(lp2236
I3
aa(lp2237
I3
aa(lp2238
I0
aa(lp2239
I3
aa(lp2240
I3
aa(lp2241
I3
aa(lp2242
I0
aI3
aa(lp2243
I0
aa(lp2244
I0
aI3
aa(lp2245
I0
aa(lp2246
I0
aI3
aa(lp2247
I0
aa(lp2248
I0
aI3
aa(lp2249
I3
aa(lp2250
I0
aI3
aa(lp2251
I0
aa(lp2252
I0
aa(lp2253
I0
aa(lp2254
I3
aa(lp2255
I3
aa(lp2256
I0
aa(lp2257
I3
aa(lp2258
I0
aI3
aa(lp2259
I0
aI3
aa(lp2260
I3
aa(lp2261
I0
aa(lp2262
I3
aa(lp2263
I0
aI1
aa(lp2264
I0
aI3
aa(lp2265
I0
aa(lp2266
I0
aa(lp2267
I3
aa(lp2268
I0
aa(lp2269
I0
aa(lp2270
I0
aa(lp2271
I3
aa(lp2272
I3
aa(lp2273
I3
aa(lp2274
I3
aa(lp2275
I0
aI3
aa(lp2276
I3
aa(lp2277
I0
aa(lp2278
I0
aa(lp2279
I0
aa(lp2280
I0
aI3
aa(lp2281
I0
aI3
aa(lp2282
I0
aI3
aa(lp2283
I3
aa(lp2284
I0
aa(lp2285
I0
aI3
aa(lp2286
I0
aI3
aa(lp2287
I0
aI1
aa(lp2288
I3
aa(lp2289
I4
aa(lp2290
I0
aa(lp2291
I4
aa(lp2292
I0
aI3
aa(lp2293
I0
aI1
aa(lp2294
I0
aI1
aa(lp2295
I4
aa(lp2296
I3
aa(lp2297
I4
aa(lp2298
I0
aI3
aa(lp2299
I0
aa(lp2300
I0
aI3
aa(lp2301
I3
aa(lp2302
I0
aI3
aa(lp2303
I0
aI3
aa(lp2304
I0
aa(lp2305
I0
aa(lp2306
I4
aa(lp2307
I0
aI3
aa(lp2308
I0
aI3
aa(lp2309
I0
aI4
aa(lp2310
I0
aa(lp2311
I0
aI3
aa(lp2312
I3
aa(lp2313
I0
aI3
aa(lp2314
I0
aI3
aa(lp2315
I0
aI1
aa(lp2316
I0
aI1
aa(lp2317
I3
aa(lp2318
I3
aa(lp2319
I0
aI3
aa(lp2320
I0
aI3
aa(lp2321
I0
aI3
aa(lp2322
I0
aI3
aa(lp2323
I0
aI4
aa(lp2324
I0
aI3
aa(lp2325
I0
aI3
aa(lp2326
I0
aI1
aa(lp2327
I0
aI3
aa(lp2328
I0
aI3
aa(lp2329
I0
aa(lp2330
I3
aa(lp2331
I0
aI1
aa(lp2332
I1
aa(lp2333
I0
aI3
aa(lp2334
I0
aI3
aa(lp2335
I3
aa(lp2336
I0
aa(lp2337
I3
aa(lp2338
I0
aI3
aa(lp2339
I0
aa(lp2340
I3
aa(lp2341
I0
aa(lp2342
I0
aa(lp2343
I3
aa(lp2344
I0
aa(lp2345
I3
aa(lp2346
I0
aa(lp2347
I3
aa(lp2348
I0
aI1
aa(lp2349
I0
aa(lp2350
I0
aa(lp2351
I0
aI3
aa(lp2352
I0
aa(lp2353
I0
aa(lp2354
I0
aa(lp2355
I0
aa(lp2356
I0
aa(lp2357
I4
aa(lp2358
I4
aa(lp2359
I3
aa(lp2360
I3
aa(lp2361
I3
aa(lp2362
I0
aa(lp2363
I0
aI3
aa(lp2364
I3
aa(lp2365
I3
aa(lp2366
I0
aI3
aa(lp2367
I0
aI3
aa(lp2368
I0
aa(lp2369
I3
aa(lp2370
I0
aa(lp2371
I0
aa(lp2372
I0
aI3
aa(lp2373
I4
aa(lp2374
I3
aa(lp2375
I0
aa(lp2376
I3
aa(lp2377
I0
aa(lp2378
I4
aa(lp2379
I0
aI3
aa(lp2380
I0
aI3
aa(lp2381
I0
aa(lp2382
I0
aI3
aa(lp2383
I0
aI3
aa(lp2384
I0
aa(lp2385
I3
aa(lp2386
I0
aa(lp2387
I4
aa(lp2388
I0
aa(lp2389
I0
aa(lp2390
I3
aa(lp2391
I0
aa(lp2392
I3
aa(lp2393
I0
aa(lp2394
I1
aa(lp2395
I0
aI1
aa(lp2396
I4
aa(lp2397
I3
aa(lp2398
I3
aa(lp2399
I0
aI4
aa(lp2400
I3
aa(lp2401
I0
aI3
aa(lp2402
I0
aa(lp2403
I0
aa(lp2404
I0
aI3
aa(lp2405
I0
aI3
aa(lp2406
I0
aI3
aa(lp2407
I0
aa(lp2408
I0
aI3
aa(lp2409
I0
aI3
aa(lp2410
I0
aa(lp2411
I3
aa(lp2412
I3
aI4
aa(lp2413
I3
aa(lp2414
I0
aI3
aa(lp2415
I0
aa(lp2416
I0
aa(lp2417
I0
aa(lp2418
I0
aI1
aa(lp2419
I3
aa(lp2420
I4
aa(lp2421
I0
aI3
aa(lp2422
I0
aI3
aa(lp2423
I0
aa(lp2424
I0
aI1
aa(lp2425
I0
aI3
aa(lp2426
I3
aa(lp2427
I0
aI3
aa(lp2428
I0
aI3
aa(lp2429
I3
aa(lp2430
I0
aa(lp2431
I0
aa(lp2432
I3
aa(lp2433
I0
aa(lp2434
I0
aa(lp2435
I0
aI3
aa(lp2436
I0
aI3
aa(lp2437
I3
aI4
aa(lp2438
I3
aa(lp2439
I0
aI3
aa(lp2440
I0
aI3
aa(lp2441
I0
aI3
aa(lp2442
I3
aI4
aa(lp2443
I3
aa(lp2444
I3
aI4
aa(lp2445
I3
aa(lp2446
I0
aa(lp2447
I0
aa(lp2448
I3
aI4
aa(lp2449
I0
aI3
aa(lp2450
I0
aI3
aa(lp2451
I0
aI1
aa(lp2452
I0
aa(lp2453
I0
aI3
aa(lp2454
I3
aa(lp2455
I0
aI3
aa(lp2456
I0
aI1
aa(lp2457
I0
aa(lp2458
I0
aI3
aa(lp2459
I0
aI3
aa(lp2460
I0
aa(lp2461
I3
aa(lp2462
I3
aa(lp2463
I0
aa(lp2464
I0
aI3
aa(lp2465
I4
aa(lp2466
I1
aa(lp2467
I0
aI4
aa(lp2468
I0
aI1
aa(lp2469
I0
aa(lp2470
I3
aa(lp2471
I0
aa(lp2472
I0
aI3
aa(lp2473
I1
aI3
aa(lp2474
I3
aa(lp2475
I0
aI3
aa(lp2476
I0
aI3
aa(lp2477
I3
aa(lp2478
I0
aI1
aa(lp2479
I4
aa.