(lp0
S'"Psycho'
p1
aS'"The Shining'
p2
aS'"Alien'
p3
aS'"The Thing'
p4
aS'"Jaws'
p5
aS'"Let the Right One In'
p6
aS'"Dawn of the Dead'
p7
aS'"The Exorcist'
p8
aS'"The Vampire Diaries'
p9
aS'"Freaks'
p10
aS'"Halloween'
p11
aS'"Evil Dead II'
p12
aS'"Repulsion'
p13
aS'"Tales from the Crypt'
p14
aS'"Dead of Night'
p15
aS'"Zombieland'
p16
aS'"The Phantom of the Opera'
p17
aS'"Peeping Tom'
p18
aS'"28 Days Later...'
p19
aS'"The Conjuring'
p20
aS'"Saw'
p21
aS'"The Wicker Man'
p22
aS'"The Haunting'
p23
aS'"The Fly'
p24
aS'"[Rec]'
p25
aS'"A Nightmare on Elm Street'
p26
aS'"Interview with the Vampire: The Vampire Chronicles'
p27
aS'"The Evil Dead'
p28
aS'"Tucker & Dale vs Evil'
p29
aS'"An American Werewolf in London'
p30
aS'"Braindead'
p31
aS'"Cube'
p32
aS'"Poltergeist'
p33
aS'"Dracula'
p34
aS'"Dawn of the Dead'
p35
aS'"Carrie'
p36
aS'"Invasion of the Body Snatchers'
p37
aS'"Ring'
p38
aS'"Village of the Damned'
p39
aS'"Let Me In'
p40
aS'"The Mist'
p41
aS'"A Tale of Two Sisters'
p42
aS'"The Descent'
p43
aS'"Planet Terror'
p44
aS'"Kim Bok-nam salinsageonui jeonmal'
p45
aS'"Audition'
p46
aS'"Hausu'
p47
aS'"Re-Animator'
p48
aS'"Tremors'
p49
aS'"The Cabin in the Woods'
p50
aS'"The Ring'
p51
aS'"Five Million Years to Earth'
p52
aS'"World War Z'
p53
aS'"The Lost Boys'
p54
aS'"They Live'
p55
aS'"Black Christmas'
p56
aS'"28 Weeks Later'
p57
aS'"Trollhunter'
p58
aS'"The Host'
p59
aS'"Stir of Echoes'
p60
aS'"Day of the Dead'
p61
aS'"Hellraiser'
p62
aS'"Riki-Oh: The Story of Ricky'
p63
aS'"Henry: Portrait of a Serial Killer'
p64
aS'"Martyrs'
p65
aS'"Tales from the Crypt'
p66
aS'"Creature from the Black Lagoon'
p67
aS'"Inside'
p68
aS'"You\'re Next'
p69
aS'"Eden Lake'
p70
aS'"High Tension'
p71
aS'"The Devil\'s Rejects'
p72
aS'"Let Sleeping Corpses Lie'
p73
aS'"It'
p74
aS'"1408'
p75
aS'"Behind the Mask: The Rise of Leslie Vernon'
p76
aS'"Dog Soldiers'
p77
aS'"Pandorum'
p78
aS'"Drag Me to Hell'
p79
aS'"Sinister'
p80
aS'"The Exorcism of Emily Rose'
p81
aS'"Trick \'r Treat'
p82
aS'"Rare Exports'
p83
aS'"Insidious'
p84
aS'"From Beyond'
p85
aS'"Scanners'
p86
aS'"Gin gwai'
p87
aS'"Final Destination'
p88
aS'"The Loved Ones'
p89
aS'"Resident Evil'
p90
aS'"They Came from Within'
p91
aS'"Creepshow'
p92
aS'"Event Horizon'
p93
aS'"Blade II'
p94
aS'"Ju-on: The Grudge'
p95
aS'"Evil Dead'
p96
aS'"30 Days of Night'
p97
aS'"Los ojos de Julia'
p98
aS'"The Crazies'
p99
aS'"What Lies Beneath'
p100
aS'"7 Days'
p101
aS'"Candyman'
p102
aS'"Saw II'
p103
aS'"Silent Hill'
p104
aS'"Them'
p105
aS'"Rose Red'
p106
aS'"Demons'
p107
aS'"The Entity'
p108
aS'"Stake Land'
p109
aS'"The Vault of Horror'
p110
aS'"Christine'
p111
aS'"Resident Evil: Damnation'
p112
aS'"The Mothman Prophecies'
p113
aS'"Slither'
p114
aS'"The Woman in Black'
p115
aS'"Child\'s Play'
p116
aS'"The Hills Have Eyes'
p117
aS'"The Awakening'
p118
aS'"Fright Night'
p119
aS'"John Dies at the End'
p120
aS'"Pet Sematary'
p121
aS'"Halloween II'
p122
aS'"Friday the 13th'
p123
aS'"Fritt vilt'
p124
aS'"Carrie'
p125
aS'"Chained'
p126
aS'"The Collector'
p127
aS'"Paranormal Activity'
p128
aS'"Secuestrados'
p129
aS'"Shatterbrain'
p130
aS'"Invaders from Mars'
p131
aS'"Feast'
p132
aS'"Dead Snow'
p133
aS'"A Nightmare on Elm Street 3: Dream Warriors'
p134
aS'"New Nightmare'
p135
aS'"Freddy\'s Nightmares'
p136
aS'"The Blair Witch Project'
p137
aS'"I Spit on Your Grave'
p138
aS'"Mother\'s Day'
p139
aS'"Mama'
p140
aS'"Rogue'
p141
aS'"Red State'
p142
aS'"Wolf Creek'
p143
aS'"The Uninvited'
p144
aS'"Devil'
p145
aS'"Vacancy'
p146
aS'"The Thing'
p147
aS'"Dark Shadows'
p148
aS'"Like Minds'
p149
aS'"Final Destination 2'
p150
aS'"American Mary'
p151
aS'"Case 39'
p152
aS'"Fronti\xe8re(s)'
p153
aS'"The Cottage'
p154
aS'"The Hole'
p155
aS'"Splinter'
p156
aS'"Saw III'
p157
aS'"Scream 4'
p158
aS'"The Strangers'
p159
aS'"The Texas Chainsaw Massacre'
p160
aS'"Night of the Demons'
p161
aS'"Marebito'
p162
aS'"The Midnight Meat Train'
p163
aS'"The People Under the Stairs'
p164
aS'"The Vanishing'
p165
aS'"Fr\xe1giles'
p166
aS'"Carriers'
p167
aS'"Dead Silence'
p168
aS'"Grave Encounters'
p169
aS'"Lake Mungo'
p170
aS'"The Collection'
p171
aS'"The Children'
p172
aS'"The Poughkeepsie Tapes'
p173
aS'"Halloween'
p174
aS'"Quarantine'
p175
aS'"Mirrors'
p176
aS'"Resident Evil: Apocalypse'
p177
aS'"Wrong Turn'
p178
aS'"Bug'
p179
aS'"The Dark Hours'
p180
aS'"Ring 0: Birthday'
p181
aS'"The Exorcist III'
p182
aS'"Black Water'
p183
aS'"Begotten'
p184
aS'"Saw VI'
p185
aS'"Paranormal Activity 3'
p186
aS'"Jeepers Creepers'
p187
aS'"Heartless'
p188
aS'"After.Life'
p189
aS'"End of the Line'
p190
aS'"Motel Hell'
p191
aS'"Terror Firmer'
p192
aS'"The Last House on the Left'
p193
aS'"Tales from the Darkside: The Movie'
p194
aS'"Cujo'
p195
aS'"Resident Evil: Afterlife'
p196
aS'"Wind Chill'
p197
aS'"The Wolfman'
p198
aS'"The Possession'
p199
aS'"House of 1000 Corpses'
p200
aS'"Outpost'
p201
aS'"P2'
p202
aS'"Saw IV'
p203
aS'"Splice'
p204
aS'"The Ruins'
p205
aS'"Tremors II: Aftershocks'
p206
aS'"Home Movie'
p207
aS'"The Haunting in Connecticut'
p208
aS'"Hostel'
p209
aS'"Piranha'
p210
aS'"The Texas Chainsaw Massacre: The Beginning'
p211
aS'"The Descent: Part 2'
p212
aS'"The Amityville Horror'
p213
aS'"Baby Blues'
p214
aS'"Mum & Dad'
p215
aS'"Raw Meat'
p216
aS'"Mimic'
p217
aS'"Alligator'
p218
aS'"Friday the 13th Part 2'
p219
aS'"Burning Bright'
p220
aS'"Isolation'
p221
aS'"The Burrowers'
p222
aS'"The Reef'
p223
aS'"V/H/S'
p224
aS'"Hide and Seek'
p225
aS'"The Pact'
p226
aS'"Final Destination 3'
p227
aS'"The Grudge'
p228
aS'"Bag of Bones'
p229
aS'"Castle Freak'
p230
aS'"Terror Train'
p231
aS'"Creepshow 2'
p232
aS'"Halloween 4: The Return of Michael Myers'
p233
aS'"Freddy vs. Jason'
p234
aS'"Altered'
p235
aS'"Absentia'
p236
aS'"Cube\xb2: Hypercube'
p237
aS'"Dread'
p238
aS'"From Within'
p239
aS'"Hell Night'
p240
aS'"Vertige'
p241
aS'"Saw V'
p242
aS'"The Deaths of Ian Stone'
p243
aS'"The Abandoned'
p244
aS'"The Last Winter'
p245
aS'"Paranormal Activity 2'
p246
aS'"All the Boys Love Mandy Lane'
p247
aS'"The Last Exorcism'
p248
aS'"Piranha 3D'
p249
aS'"Somos lo que hay'
p250
aS'"The Gate'
p251
aS'"The Gathering'
p252
aS'"Fright Night Part 2'
p253
aS'"Hatchet'
p254
aS'"Humanoids from the Deep'
p255
aS'"Alien Raiders'
p256
aS'"Friday the 13th: The Final Chapter'
p257
aS'"100 Feet'
p258
aS'"Don\'t Be Afraid of the Dark'
p259
aS'"Creep'
p260
aS'"Borderland'
p261
aS'"Saw 3D: The Final Chapter'
p262
aS'"The Bay'
p263
aS'"The Shrine'
p264
aS'"Truth or Die'
p265
aS'"The Purge'
p266
aS'"The Ward'
p267
aS'"Cabin Fever'
p268
aS'"Dark Water'
p269
aS'"I Know What You Did Last Summer'
p270
aS'"Teeth'
p271
aS'"The Reaping'
p272
aS'"I Spit on Your Grave'
p273
aS'"Vamp'
p274
aS'"Jason Lives: Friday the 13th Part VI'
p275
aS'"Thinner'
p276
aS'"House at the End of the Street'
p277
aS'"House on Haunted Hill'
p278
aS'"Kill Theory'
p279
aS'"My Bloody Valentine'
p280
aS'"The Bunker'
p281
aS'"The Hills Run Red'
p282
aS'"Wake Wood'
p283
aS'"The Tortured'
p284
aS'"Village of the Damned'
p285
aS'"The Zodiac'
p286
aS'"House of 9'
p287
aS'"Jeepers Creepers II'
p288
aS'"Friday the 13th'
p289
aS'"Wrong Turn 2: Dead End'
p290
aS'"Halloween H20: 20 Years Later'
p291
aS'"Friday the 13th Part III'
p292
aS'"A Nightmare on Elm Street 4: The Dream Master'
p293
aS'"Village of the Damned'
p294
aS'"Citadel'
p295
aS'"C.H.U.D.'
p296
aS'"Megan Is Missing'
p297
aS'"Nine Dead'
p298
aS'"Tremors 3: Back to Perfection'
p299
aS'"Hostel: Part II'
p300
aS'"Urban Legend'
p301
aS'"The Messengers'
p302
aS'"The Clinic'
p303
aS'"Intruders'
p304
aS'"Carrie'
p305
aS'"Dominion: Prequel to the Exorcist'
p306
aS'"Red Riding Hood'
p307
aS'"Resident Evil: Retribution'
p308
aS'"In Their Skin'
p309
aS'"Grace'
p310
aS'"Apollo 18'
p311
aS'"Lovely Molly'
p312
aS'"The Lords of Salem'
p313
aS'"The Thaw'
p314
aS'"Turistas'
p315
aS'"Quarantine 2: Terminal'
p316
aS'"House of Wax'
p317
aS'"Tremors 4: The Legend Begins'
p318
aS'"Sublime'
p319
aS'"The Day'
p320
aS'"Laid to Rest'
p321
aS'"The Ring Two'
p322
aS'"The Eye'
p323
aS'"Bait'
p324
aS'"Apartment 143'
p325
aS'"Amusement'
p326
aS'"The Depraved'
p327
aS'"Timber Falls'
p328
aS'"[REC]\xb3 Genesis'
p329
aS'"And Soon the Darkness'
p330
aS'"Jennifer\'s Body'
p331
aS'"A Nightmare on Elm Street'
p332
aS'"Legion'
p333
aS'"Inbred'
p334
aS'"A Nightmare on Elm Street 2: Freddy\'s Revenge'
p335
aS'"Grimm Love'
p336
aS'"Hunger'
p337
aS'"Silent Hill: Revelation 3D'
p338
aS'"Grave Encounters 2'
p339
aS'"Husk'
p340
aS'"Malevolence'
p341
aS'"La posesi\xf3n de Emma Evans'
p342
aS'"Shutter'
p343
aS'"Chernobyl Diaries'
p344
aS'"Sorority Row'
p345
aS'"The Hills Have Eyes II'
p346
aS'"The Final Destination'
p347
aS'"Rovdyr'
p348
aS'"ChromeSkull: Laid to Rest 2'
p349
aS'"Exorcist: The Beginning'
p350
aS'"Fingerprints'
p351
aS'"Candyman: Farewell to the Flesh'
p352
aS'"The Haunting in Connecticut 2: Ghosts of Georgia'
p353
aS'"Atrocious'
p354
aS'"Broken'
p355
aS'"Insanitarium'
p356
aS'"See No Evil'
p357
aS'"Tooth and Nail'
p358
aS'"The Cave'
p359
aS'"Boogeyman 2'
p360
aS'"The Dentist'
p361
aS'"Scissors'
p362
aS'"The Forgotten'
p363
aS'"Halloween 5'
p364
aS'"Friday the 13th Part VII: The New Blood'
p365
aS'"A Nightmare on Elm Street 5: The Dream Child'
p366
aS'"Darkness Falls'
p367
aS'"Gurotesuku'
p368
aS'"Halloween II'
p369
aS'"Texas Chainsaw 3D'
p370
aS'"The Darkest Hour'
p371
aS'"Vanishing on 7th Street'
p372
aS'"Vacancy 2: The First Cut'
p373
aS'"Headspace'
p374
aS'"Cursed'
p375
aS'"Aftershock'
p376
aS'"Stag Night'
p377
aS'"When a Stranger Calls'
p378
aS'"Aliens vs. Predator: Requiem'
p379
aS'"House'
p380
aS'"Stay Alive'
p381
aS'"Vile'
p382
aS'"They'
p383
aS'"Boogeyman 3'
p384
aS'"The Grudge 2'
p385
aS'"Strangeland'
p386
aS'"Halloween: The Curse of Michael Myers'
p387
aS'"Freddy\'s Dead: The Final Nightmare'
p388
aS'"Pig Hunt'
p389
aS'"Come Out and Play'
p390
aS'"Black Rock'
p391
aS'"Night Skies'
p392
aS'"My Soul to Take'
p393
aS'"Return to House on Haunted Hill'
p394
aS'"Captivity'
p395
aS'"Hostel: Part III'
p396
aS'"Shrooms'
p397
aS'"The Roommate'
p398
aS'"The Unborn'
p399
aS'"Leprechaun 3'
p400
aS'"Psycho'
p401
aS'"Rest Stop: Don\'t Look Back'
p402
aS'"Dark Floors'
p403
aS'"Catacombs'
p404
aS'"The Human Centipede (First Sequence)'
p405
aS'"The Grudge 3'
p406
aS'"Paranormal Activity 4'
p407
aS'"30 Days of Night: Dark Days'
p408
aS'"Deadline'
p409
aS'"Rest Stop'
p410
aS'"The Presence'
p411
aS'"Leprechaun'
p412
aS'"Friday the 13th: A New Beginning'
p413
aS'"Barricade'
p414
aS'"Black Christmas'
p415
aS'"Paranormal Entity'
p416
aS'"Wrong Turn 4: Bloody Beginnings'
p417
aS'"Jason X'
p418
aS'"Growth'
p419
aS'"Breathing Room'
p420
aS'"Halloween III: Season of the Witch'
p421
aS'"Urban Legends: Bloody Mary'
p422
aS'"The Task'
p423
aS'"Squirm'
p424
aS'"The Boogey Man'
p425
aS'"Friday the 13th Part VIII: Jason Takes Manhattan'
p426
aS'"Jason Goes to Hell: The Final Friday'
p427
aS'"Playback'
p428
aS'"Scar'
p429
aS'"The Devil Inside'
p430
aS'"Asylum'
p431
aS'"Scary or Die'
p432
aS'"The Apparition'
p433
aS'"Boogeyman'
p434
aS'"Unearthed'
p435
aS'"Leprechaun 2'
p436
aS'"Book of Shadows: Blair Witch 2'
p437
aS'"Shark Night 3D'
p438
aS'"The Last Exorcism Part II'
p439
aS'"11-11-11'
p440
aS'"The Human Centipede II (Full Sequence)'
p441
aS'"Wrong Turn 5: Bloodlines'
p442
aS'"Piranha 3DD'
p443
aS'"Halloween: Resurrection'
p444
aS'"Candyman: Day of the Dead'
p445
aS'"The Devil\'s Tomb'
p446
aS'"Prom Night'
p447
aS'"Road Kill'
p448
aS'"Exorcist II: The Heretic'
p449
aS'"Leprechaun: Back 2 tha Hood'
p450
aS'"Area 407'
p451
aS'"The Wicker Man'
p452
aS'"51'
p453
aS'"The Fog'
p454
aS'"C.H.U.D. II - Bud the Chud'
p455
aS'"The Rig'
p456
aS'"Leprechaun 4: In Space'
p457
aS'"Creepshow III'
p458
aS'"Sand Sharks'
p459
aS'"Death Tunnel'
p460
aS'"Alone in the Dark'
p461
aS'"The Bat People'
p462
aS'"The Grey'
p463
aS'"Oblivion'
p464
aS'"Star Wars'
p465
aS'"The Lion King'
p466
aS'"Toy Story'
p467
aS'"The Matrix'
p468
aS'"Star Wars: Episode I - The Phantom Menace'
p469
aS'"Gladiator'
p470
aS'"X-Men'
p471
aS'"The Lord of the Rings: The Fellowship of the Ring'
p472
aS'"The Lord of the Rings: The Two Towers'
p473
aS'"Finding Nemo'
p474
aS'"The Lord of the Rings: The Return of the King'
p475
aS'"Star Wars: Episode III - Revenge of the Sith'
p476
aS'"Batman Begins'
p477
aS'"Transformers'
p478
aS'"Iron Man'
p479
aS'"Quantum of Solace'
p480
aS'"G.I. Joe: The Rise of Cobra'
p481
aS'"Star Trek'
p482
aS'"Up'
p483
aS'"X-Men Origins: Wolverine'
p484
aS'"2012'
p485
aS'"Avatar'
p486
aS'"How to Train Your Dragon'
p487
aS'"Inception'
p488
aS'"Iron Man 2'
p489
aS'"TRON: Legacy'
p490
aS'"Toy Story 3'
p491
aS'"Pirates of the Caribbean: On Stranger Tides'
p492
aS'"X-Men: First Class'
p493
aS'"The Amazing Spider-Man'
p494
aS'"Battleship'
p495
aS'"The Bourne Legacy'
p496
aS'"Brave'
p497
aS'"The Expendables 2'
p498
aS'"John Carter'
p499
aS'"Rise of the Guardians'
p500
aS'"Skyfall'
p501
aS'"Total Recall'
p502
aS'"Wreck-It Ralph'
p503
aS'"G.I. Joe: Retaliation'
p504
aS'"The Croods'
p505
aS'"Ender\'s Game'
p506
aS'"Man of Steel'
p507
aS'"Pacific Rim'
p508
aS'"The Hunger Games: Catching Fire'
p509
aS'"The Lone Ranger'
p510
aS'"The Wolverine'
p511
aS'"Iron Man Three'
p512
aS'"Thor: The Dark World'
p513
aS'"Star Trek Into Darkness'
p514
aS'"Star Wars: Episode V - The Empire Strikes Back'
p515
aS'"Raiders of the Lost Ark'
p516
aS'"Star Wars: Episode VI - Return of the Jedi'
p517
aS'"Red Dawn'
p518
aS'"Independence Day'
p519
aS'"Armageddon'
p520
aS'"The Mummy'
p521
aS'"Toy Story 2'
p522
aS'"Monsters, Inc.'
p523
aS'"Spirited Away'
p524
aS'"Star Wars: Episode II - Attack of the Clones'
p525
aS'"Pirates of the Caribbean: The Curse of the Black Pearl'
p526
aS'"The Incredibles'
p527
aS'"Cars'
p528
aS'"Superman Returns'
p529
aS'"X-Men: The Last Stand'
p530
aS'"Jumper'
p531
aS'"Transformers: Revenge of the Fallen'
p532
aS'"Sherlock Holmes'
p533
aS'"The A-Team'
p534
aS'"The Book of Eli'
p535
aS'"Clash of the Titans'
p536
aS'"The Expendables'
p537
aS'"Robin Hood'
p538
aS'"Cars 2'
p539
aS'"Green Lantern'
p540
aS'"Rio'
p541
aS'"Sherlock Holmes: A Game of Shadows'
p542
aS'"Ice Age: Continental Drift'
p543
aS'"Madagascar 3: Europe\'s Most Wanted'
p544
aS'"ParaNorman'
p545
aS'"Wrath of the Titans'
p546
aS'"Monsters University'
p547
aS'"Epic'
p548
aS'"The Man with the Golden Gun'
p549
aS'"Aliens'
p550
aS'"Predator'
p551
aS'"Indiana Jones and the Last Crusade'
p552
aS'"Total Recall'
p553
aS'"The Rock'
p554
aS'"The Fifth Element'
p555
aS'"The Lost World: Jurassic Park'
p556
aS'"O Brother, Where Art Thou?'
p557
aS'"Jurassic Park III'
p558
aS'"Shrek'
p559
aS'"X2'
p560
aS'"The Matrix Revolutions'
p561
aS'"Spider-Man 2'
p562
aS'"Van Helsing'
p563
aS'"Madagascar'
p564
aS'"Fantastic Four'
p565
aS'"The Island'
p566
aS'"Serenity'
p567
aS'"Pirates of the Caribbean: Dead Man\'s Chest'
p568
aS'"Pirates of the Caribbean: At World\'s End'
p569
aS'"Spider-Man 3'
p570
aS'"Kung Fu Panda'
p571
aS'"Predators'
p572
aS'"Shrek Forever After'
p573
aS'"Hanna'
p574
aS'"Kung Fu Panda 2'
p575
aS'"Puss in Boots'
p576
aS'"Act of Valor'
p577
aS'"Journey 2: The Mysterious Island'
p578
aS'"Superman'
p579
aS'"Indiana Jones and the Temple of Doom'
p580
aS'"Starship Troopers'
p581
aS'"Mulan'
p582
aS'"A Bug\'s Life'
p583
aS'"Die Another Day'
p584
aS'"Ice Age'
p585
aS'"The Chronicles of Riddick'
p586
aS'"The Day After Tomorrow'
p587
aS'"Shrek 2'
p588
aS'"Apocalypto'
p589
aS'"Bolt'
p590
aS'"Hellboy II: The Golden Army'
p591
aS'"Indiana Jones and the Kingdom of the Crystal Skull'
p592
aS'"Journey to the Center of the Earth'
p593
aS'"9'
p594
aS'"Monsters vs Aliens'
p595
aS'"Resident Evil: Afterlife'
p596
aS'"The Sorcerer\'s Apprentice'
p597
aS'"Hellboy'
p598
aS'"National Treasure'
p599
aS'"Beowulf'
p600
aS'"Twister'
p601
aS'"National Treasure: Book of Secrets'
p602
aS'"The Mortal Instruments: City of Bones'
p603
aS'"WALL\xb7E'
p604
aS'"Aladdin'
p605
aS'"The Three Musketeers'
p606
aS'"Prince of Persia: The Sands of Time'
p607
aS'"King Kong'
p608
aS'"Legend'
p609
aS'"Ice Age: Dawn of the Dinosaurs'
p610
aS'"Hercules'
p611
aS'"Captain America: The First Avenger'
p612
aS'"Thor'
p613
aS'"Transformers: Dark of the Moon'
p614
aS'"Mission: Impossible III'
p615
aS'"Rango'
p616
aS'"The Adventures of Tintin'
p617
aS'"Mission: Impossible'
p618
aS'"The Last of the Mohicans'
p619
aS'"The Last Samurai'
p620
aS'"Kingdom of Heaven'
p621
aS'"Red Tails'
p622
aS'"King Arthur'
p623
aS'"The Mummy Returns'
p624
aS'"The Pirates! Band of Misfits'
p625
aS'"The Blues Brothers'
p626
aS'"TRON'
p627
aS'"Big Trouble in Little China'
p628
aS'"Teenage Mutant Ninja Turtles'
p629
aS'"Waterworld'
p630
aS'"The Iron Giant'
p631
aS'"The Emperor\'s New Groove'
p632
aS'"Mission: Impossible II'
p633
aS'"Atlantis: The Lost Empire'
p634
aS'"Lilo & Stitch'
p635
aS'"Over the Hedge'
p636
aS'"Night at the Museum'
p637
aS'"Meet the Robinsons'
p638
aS'"Shrek the Third'
p639
aS'"Horton Hears a Who!'
p640
aS'"The Chronicles of Narnia: Prince Caspian'
p641
aS'"Madagascar: Escape 2 Africa'
p642
aS'"Race to Witch Mountain'
p643
aS'"Fantastic Mr. Fox'
p644
aS'"Tomorrow, When the War Began'
p645
aS'"Outlander'
p646
aS'"Dune'
p647
aS'"The Hunt for Red October'
p648
aS'"The Fugitive'
p649
aS'"Stargate'
p650
aS'"Space Jam'
p651
aS'"Anastasia'
p652
aS'"Austin Powers: The Spy Who Shagged Me'
p653
aS'"Master and Commander: The Far Side of the World'
p654
aS'"Blade: Trinity'
p655
aS'"The Polar Express'
p656
aS'"Shark Tale'
p657
aS'"Chicken Little'
p658
aS'"Into the Blue'
p659
aS'"Ice Age: The Meltdown'
p660
aS'"Bee Movie'
p661
aS'"The Simpsons Movie'
p662
aS'"Transporter 3'
p663
aS'"Underworld: Rise of the Lycans'
p664
aS'"Legend of the Guardians: The Owls of Ga\'Hoole'
p665
aS'"The Secret World of Arrietty'
p666
aS'"Valhalla Rising'
p667
aS'"Diamonds Are Forever'
p668
aS'"Robin Hood'
p669
aS'"Moonraker'
p670
aS'"Conan the Barbarian'
p671
aS'"First Blood'
p672
aS'"Rambo: First Blood Part II'
p673
aS'"Air Force One'
p674
aS'"Treasure Planet'
p675
aS'"The Rundown'
p676
aS'"Robots'
p677
aS'"Flushed Away'
p678
aS'"The Guardian'
p679
aS'"Arthur and the Invisibles'
p680
aS'"Sanctum'
p681
aS'"The AristoCats'
p682
aS'"Ironclad'
p683
aS'"The Fox and the Hound'
p684
aS'"Mad Max'
p685
aS'"Mad Max 2: The Road Warrior'
p686
aS'"The Living Daylights'
p687
aS'"Ghostbusters II'
p688
aS'"The Host'
p689
aS'"DragonHeart'
p690
aS'"The 13th Warrior'
p691
aS'"Stuart Little'
p692
aS'"The Perfect Storm'
p693
aS'"Reign of Fire'
p694
aS'"The Time Machine'
p695
aS'"Without a Paddle'
p696
aS'"The Brothers Grimm'
p697
aS'"First Knight'
p698
aS'"Zathura: A Space Adventure'
p699
aS'"Open Season'
p700
aS'"King Kong'
p701
aS'"Wild Hogs'
p702
aS'"Ponyo'
p703
aS'"Planet 51'
p704
aS'"Solomon Kane'
p705
aS'"Flash Gordon'
p706
aS'"Never Say Never Again'
p707
aS'"Star Trek III: The Search for Spock'
p708
aS'"Stalker'
p709
aS'"James and the Giant Peach'
p710
aS'"The Jackal'
p711
aS'"Antz'
p712
aS'"Three Kings'
p713
aS'"Johnny English'
p714
aS'"Brother Bear'
p715
aS'"Percy Jackson & the Olympians: The Lightning Thief'
p716
aS'"The Descent: Part 2'
p717
aS'"Last Action Hero'
p718
aS'"Dinosaur'
p719
aS'"Shanghai Knights'
p720
aS'"TMNT'
p721
aS'"Final Fantasy: The Spirits Within'
p722
aS'"Nim\'s Island'
p723
aS'"Shanghai Noon'
p724
aS'"Sky Captain and the World of Tomorrow'
p725
aS'"Robin Hood: Prince of Thieves'
p726
aS'"Willow'
p727
aS'"Cannibal Holocaust'
p728
aS'"The Forbidden Kingdom'
p729
aS'"Tarzan'
p730
aS'"European Vacation'
p731
aS'"Howl\'s Moving Castle'
p732
aS'"Tomorrow Never Dies'
p733
aS'"The World Is Not Enough'
p734
aS'"Octopussy'
p735
aS'"Team America: World Police'
p736
aS'"For Your Eyes Only'
p737
aS'"Star Trek II: The Wrath of Khan'
p738
aS'"Highlander'
p739
aS'"Licence to Kill'
p740
aS'"Star Trek: First Contact'
p741
aS'"The Mask of Zorro'
p742
aS'"Crouching Tiger, Hidden Dragon'
p743
aS'"Star Trek: Nemesis'
p744
aS'"Percy Jackson: Sea of Monsters'
p745
aS'"The Spy Who Loved Me'
p746
aS'"On the Road'
p747
aS'"A View to a Kill'
p748
aS'"The Man in the Iron Mask'
p749
aS'"Inkheart'
p750
aS'"The Mexican'
p751
aS'"Star Trek VI: The Undiscovered Country'
p752
aS'"Star Trek: Generations'
p753
aS'"Star Trek: Insurrection'
p754
aS'"Sahara'
p755
aS'"The Postman'
p756
aS'"A Knight\'s Tale'
p757
aS'"Bill & Ted\'s Bogus Journey'
p758
aS'"The Prince of Egypt'
p759
aS'"The Count of Monte Cristo'
p760
aS'"Pocahontas'
p761
aS'"Centurion'
p762
aS'"Das Boot'
p763
aS'"Red Cliff'
p764
aS'"Snow White and the Huntsman'
p765
aS'"Adventures in Babysitting'
p766
aS'"Johnny English Reborn'
p767
aS'"Dante\'s Peak'
p768
aS'"The Last Starfighter'
p769
aS'"The Parent Trap'
p770
aS'"The Golden Compass'
p771
aS'"Cirque du Freak: The Vampire\'s Assistant'
p772
aS'"The Dark Crystal'
p773
aS'"Flight of the Navigator'
p774
aS'"The Land Before Time'
p775
aS'"The Eagle'
p776
aS'"The Road to El Dorado'
p777
aS'"Around the World in 80 Days'
p778
aS'"Flight of the Phoenix'
p779
aS'"Young Guns II'
p780
aS'"The Legend of Zorro'
p781
aS'"The Curse of the Were-Rabbit'
p782
aS'"Kelly\'s Heroes'
p783
aS'"The Rescuers'
p784
aS'"2010'
p785
aS'"Romancing the Stone'
p786
aS'"Mad Max Beyond Thunderdome'
p787
aS'"The Great Mouse Detective'
p788
aS'"Oliver & Company'
p789
aS'"Teenage Mutant Ninja Turtles II: The Secret of the Ooze'
p790
aS'"The Rocketeer'
p791
aS'"Small Soldiers'
p792
aS'"Titan A.E.'
p793
aS'"Hidalgo'
p794
aS'"House of Flying Daggers'
p795
aS'"Home Alone 2: Lost in New York'
p796
aS'"Sky High'
p797
aS'"The Outlaw Josey Wales'
p798
aS'"The Rescuers Down Under'
p799
aS'"The Three Musketeers'
p800
aS'"A Goofy Movie'
p801
aS'"Honey, I Shrunk the Kids'
p802
aS'"Space Cowboys'
p803
aS'"Vertical Limit'
p804
aS'"Spirit: Stallion of the Cimarron'
p805
aS'"\xa1Three Amigos!'
p806
aS'"Beyond Borders'
p807
aS'"Jack the Giant Slayer'
p808
aS'"The Chronicles of Narnia: The Voyage of the Dawn Treader'
p809
aS'"Rat Race'
p810
aS'"Star Trek: The Motion Picture'
p811
aS'"Midnight Run'
p812
aS'"Maverick'
p813
aS'"Nothing to Lose'
p814
aS'"Lord of the Flies'
p815
aS'"The Astronaut Farmer'
p816
aS'"The Four Feathers'
p817
aS'"The Ant Bully'
p818
aS'"The Messenger: The Story of Joan of Arc'
p819
aS'"1492: Conquest of Paradise'
p820
aS'"The Transformers: The Movie'
p821
aS'"The River Wild'
p822
aS'"Executive Decision'
p823
aS'"Proof of Life'
p824
aS'"Hot Tub Time Machine'
p825
aS'"Idiocracy'
p826
aS'"Road Trip'
p827
aS'"A Perfect Getaway'
p828
aS'"City of Ember'
p829
aS'"Enemy Mine'
p830
aS'"Casanova'
p831
aS'"An American Tail'
p832
aS'"Far and Away'
p833
aS'"The Missing'
p834
aS'"Balto'
p835
aS'"Rogue'
p836
aS'"Oz the Great and Powerful'
p837
aS'"The Animatrix'
p838
aS'"EuroTrip'
p839
aS'"Heavy Metal'
p840
aS'"The Poseidon Adventure'
p841
aS'"The Lord of the Rings'
p842
aS'"The Golden Child'
p843
aS'"Alice in Wonderland'
p844
aS'"War of the Worlds'
p845
aS'"Hook'
p846
aS'"Osmosis Jones'
p847
aS'"The Beach'
p848
aS'"Harold & Kumar Escape from Guantanamo Bay'
p849
aS'"Robin Hood: Men in Tights'
p850
aS'"Jackie Chan\'s Who Am I?'
p851
aS'"The Adventures of Baron Munchausen'
p852
aS'"Watership Down'
p853
aS'"Sex Drive'
p854
aS'"Australia'
p855
aS'"Deep Rising'
p856
aS'"Crocodile Dundee'
p857
aS'"Sinbad: Legend of the Seven Seas'
p858
aS'"The Hitchhiker\'s Guide to the Galaxy'
p859
aS'"The Spiderwick Chronicles'
p860
aS'"Tenacious D in The Pick of Destiny'
p861
aS'"The Ghost and the Darkness'
p862
aS'"Jumanji'
p863
aS'"Innerspace'
p864
aS'"The Mosquito Coast'
p865
aS'"Out of Africa'
p866
aS'"Alive'
p867
aS'"Wyatt Earp'
p868
aS'"Rob Roy'
p869
aS'"Flyboys'
p870
aS'"Little Big Man'
p871
aS'"Tora! Tora! Tora!'
p872
aS'"Charlie and the Chocolate Factory'
p873
aS'"Homeward Bound: The Incredible Journey'
p874
aS'"Clash of the Titans'
p875
aS'"Beneath the Planet of the Apes'
p876
aS'"Cool Runnings'
p877
aS'"Looney Tunes: Back in Action'
p878
aS'"The Hunter'
p879
aS'"Krull'
p880
aS'"Jimmy Neutron: Boy Genius'
p881
aS'"Son of Rambow'
p882
aS'"The Chronicles of Narnia: The Lion, the Witch and the Wardrobe'
p883
aS'"The Man Who Would Be King'
p884
aS'"The Jewel of the Nile'
p885
aS'"DuckTales the Movie: Treasure of the Lost Lamp'
p886
aS'"Extremely Loud & Incredibly Close'
p887
aS'"Lemony Snicket\'s A Series of Unfortunate Events'
p888
aS'"The Imaginarium of Doctor Parnassus'
p889
aS'"Peter Pan'
p890
aS'"Where the Wild Things Are'
p891
aS'"Bill & Ted\'s Excellent Adventure'
p892
aS'"The Brothers Bloom'
p893
aS'"Screamers'
p894
aS'"Pee-wee\'s Big Adventure'
p895
aS'"MirrorMask'
p896
aS'"The Hunting Party'
p897
aS'"Bedknobs and Broomsticks'
p898
aS'"The Edge'
p899
aS'"Ladyhawke'
p900
aS'"Runaway Train'
p901
aS'"Babe'
p902
aS'"Seven Years in Tibet'
p903
aS'"Starman'
p904
aS'"Time Bandits'
p905
aS'"Vampire Hunter D: Bloodlust'
p906
aS'"Paul'
p907
aS'"A.I. Artificial Intelligence'
p908
aS'"Spaceballs'
p909
aS'"Holes'
p910
aS'"Prometheus'
p911
aS'"Bridge to Terabithia'
p912
aS'"Harold & Kumar Go to White Castle'
p913
aS'"Troy'
p914
aS'"The Darjeeling Limited'
p915
aS'"Agora'
p916
aS'"Everybody\'s Fine'
p917
aS'"Harry Potter and the Chamber of Secrets'
p918
aS'"The Road'
p919
aS'"Sunshine'
p920
aS'"Galaxy Quest'
p921
aS'"The Hunger Games'
p922
aS'"The Life Aquatic with Steve Zissou'
p923
aS'"Eight Below'
p924
aS'"The Descent'
p925
aS'"Star Trek IV: The Voyage Home'
p926
aS'"Beavis and Butt-Head Do America'
p927
aS'"Harry Potter and the Sorcerer\'s Stone'
p928
aS'"Harry Potter and the Order of the Phoenix'
p929
aS'"The NeverEnding Story'
p930
aS'"Back to the Future Part III'
p931
aS'"Dogma'
p932
aS'"Labyrinth'
p933
aS'"The Bucket List'
p934
aS'"Thelma & Louise'
p935
aS'"Vacation'
p936
aS'"Rescue Dawn'
p937
aS'"The Way Back'
p938
aS'"Excalibur'
p939
aS'"Harry Potter and the Half-Blood Prince'
p940
aS'"Transamerica'
p941
aS'"The Three Burials of Melquiades Estrada'
p942
aS'"The Mission'
p943
aS'"Harry Potter and the Goblet of Fire'
p944
aS'"Gallipoli'
p945
aS'"Harry Potter and the Deathly Hallows: Part 1'
p946
aS'"Fear and Loathing in Las Vegas'
p947
aS'"Cast Away'
p948
aS'"Hugo'
p949
aS'"The Abyss'
p950
aS'"The Muppet Movie'
p951
aS'"The Goonies'
p952
aS'"Harry Potter and the Prisoner of Azkaban'
p953
aS'"Back to the Future Part II'
p954
aS'"Stardust'
p955
aS'"True Grit'
p956
aS'"127 Hours'
p957
aS'"Close Encounters of the Third Kind'
p958
aS'"Deliverance'
p959
aS'"The Fall'
p960
aS'"E.T. the Extra-Terrestrial'
p961
aS'"Children of Men'
p962
aS'"Little Miss Sunshine'
p963
aS'"The Right Stuff'
p964
aS'"Jurassic Park'
p965
aS'"The Hobbit: An Unexpected Journey'
p966
aS'"Life of Pi'
p967
aS'"Big Fish'
p968
aS'"Blood Diamond'
p969
aS'"Dances with Wolves'
p970
aS'"Aguirre, the Wrath of God'
p971
aS'"Harry Potter and the Deathly Hallows: Part 2'
p972
aS'"Jaws'
p973
aS'"Stand by Me'
p974
aS'"The Princess Bride'
p975
aS'"Into the Wild'
p976
aS'"Barry Lyndon'
p977
aS'"Inglourious Basterds'
p978
aS'"Monty Python and the Holy Grail'
p979
aS'"Back to the Future'
p980
aS'"Django Unchained'
p981
aS'"The Godfather: Part II'
p982
aS'"The Godfather'
p983
aS'"The Silence of the Lambs'
p984
aS'"Pulp Fiction'
p985
aS'"The Shawshank Redemption'
p986
aS'"Se7en'
p987
aS'"Sin City'
p988
aS'"The Departed'
p989
aS'"Drive'
p990
aS'"The Girl with the Dragon Tattoo'
p991
aS'"End of Watch'
p992
aS'"Killing Them Softly'
p993
aS'"Lawless'
p994
aS'"Trance'
p995
aS'"Side Effects'
p996
aS'"The Place Beyond the Pines'
p997
aS'"Broken City'
p998
aS'"Pawn'
p999
aS'"Only God Forgives'
p1000
aS'"A Clockwork Orange'
p1001
aS'"The Outsiders'
p1002
aS'"Scarface'
p1003
aS'"L\xe9on: The Professional'
p1004
aS'"The Usual Suspects'
p1005
aS'"The Green Mile'
p1006
aS'"American Psycho'
p1007
aS'"Snatch.'
p1008
aS'"Hannibal'
p1009
aS'"No Country for Old Men'
p1010
aS'"Law Abiding Citizen'
p1011
aS'"The Town'
p1012
aS'"Deadfall'
p1013
aS'"The Tall Man'
p1014
aS'"American History X'
p1015
aS'"Trainspotting'
p1016
aS'"Reservoir Dogs'
p1017
aS'"Taxi Driver'
p1018
aS'"The Untouchables'
p1019
aS'"Fargo'
p1020
aS'"L.A. Confidential'
p1021
aS'"Ocean\'s Eleven'
p1022
aS'"Mystic River'
p1023
aS'"Collateral'
p1024
aS'"Inside Man'
p1025
aS'"Zodiac'
p1026
aS'"The Lincoln Lawyer'
p1027
aS'"Compliance'
p1028
aS'"Killer Joe'
p1029
aS'"Like Minds'
p1030
aS'"Lock, Stock and Two Smoking Barrels'
p1031
aS'"Once Upon a Time in America'
p1032
aS'"The Godfather: Part III'
p1033
aS'"A Few Good Men'
p1034
aS'"True Romance'
p1035
aS'"A Time to Kill'
p1036
aS'"Scream'
p1037
aS'"Jackie Brown'
p1038
aS'"Gangs of New York'
p1039
aS'"Ocean\'s Twelve'
p1040
aS'"Saw'
p1041
aS'"White Chicks'
p1042
aS'"Lucky Number Slevin'
p1043
aS'"Gone Baby Gone'
p1044
aS'"Ocean\'s Thirteen'
p1045
aS'"21'
p1046
aS'"The Last House on the Left'
p1047
aS'"The Factory'
p1048
aS'"Kids'
p1049
aS'"Natural Born Killers'
p1050
aS'"Sleepers'
p1051
aS'"Wild Things'
p1052
aS'"Traffic'
p1053
aS'"Insomnia'
p1054
aS'"Lord of War'
p1055
aS'"Fracture'
p1056
aS'"Hannibal Rising'
p1057
aS'"Michael Clayton'
p1058
aS'"The Collector'
p1059
aS'"The American'
p1060
aS'"I Spit on Your Grave'
p1061
aS'"The Clinic'
p1062
aS'"Green Street Hooligans'
p1063
aS'"Layer Cake'
p1064
aS'"Chinatown'
p1065
aS'"Road to Perdition'
p1066
aS'"Eastern Promises'
p1067
aS'"The Bank Job'
p1068
aS'"Lakeview Terrace'
p1069
aS'"Shattered'
p1070
aS'"The Next Three Days'
p1071
aS'"Step Up'
p1072
aS'"All Good Things'
p1073
aS'"Wall Street'
p1074
aS'"A Bronx Tale'
p1075
aS'"Carlito\'s Way'
p1076
aS'"Les Mis\xe9rables'
p1077
aS'"Panic Room'
p1078
aS'"A History of Violence'
p1079
aS'"Mr. Brooks'
p1080
aS'"Cleanskin'
p1081
aS'"Trespass'
p1082
aS'"Boyz n the Hood'
p1083
aS'"Primal Fear'
p1084
aS'"25th Hour'
p1085
aS'"Brooklyn\'s Finest'
p1086
aS'"Edge of Darkness'
p1087
aS'"The Son of No One'
p1088
aS'"The Loved Ones'
p1089
aS'"Match Point'
p1090
aS'"Funny Games'
p1091
aS'"This Is England'
p1092
aS'"21 Grams'
p1093
aS'"Kama Sutra: A Tale of Love'
p1094
aS'"Blue Velvet'
p1095
aS'"Dog Day Afternoon'
p1096
aS'"Mean Streets'
p1097
aS'"Manhunter'
p1098
aS'"New Jack City'
p1099
aS'"Falling Down'
p1100
aS'"Kiss the Girls'
p1101
aS'"From Hell'
p1102
aS'"The Exorcism of Emily Rose'
p1103
aS'"The Black Dahlia'
p1104
aS'"Saw III'
p1105
aS'"The Brave One'
p1106
aS'"We Own the Night'
p1107
aS'"Untraceable'
p1108
aS'"Saw V'
p1109
aS'"Saw 3D: The Final Chapter'
p1110
aS'"The Conspirator'
p1111
aS'"Revolver'
p1112
aS'"The Informers'
p1113
aS'"Felon'
p1114
aS'"Following'
p1115
aS'"Escape from Alcatraz'
p1116
aS'"Fallen'
p1117
aS'"8MM'
p1118
aS'"The Bone Collector'
p1119
aS'"The Talented Mr. Ripley'
p1120
aS'"The Thomas Crown Affair'
p1121
aS'"Trapped'
p1122
aS'"Mindhunters'
p1123
aS'"Awake'
p1124
aS'"In the Valley of Elah'
p1125
aS'"The Lookout'
p1126
aS'"Saw IV'
p1127
aS'"Appaloosa'
p1128
aS'"Meeting Evil'
p1129
aS'"Rampart'
p1130
aS'"X'
p1131
aS'"Animal Kingdom'
p1132
aS'"London Boulevard'
p1133
aS'"The Killer Inside Me'
p1134
aS'"The Bad Lieutenant: Port of Call - New Orleans'
p1135
aS'"Sexy Beast'
p1136
aS'"Miller\'s Crossing'
p1137
aS'"Body Heat'
p1138
aS'"Badlands'
p1139
aS'"Presumed Innocent'
p1140
aS'"Strange Days'
p1141
aS'"Frequency'
p1142
aS'"Out of Time'
p1143
aS'"Hostage'
p1144
aS'"Firewall'
p1145
aS'"Gridiron Gang'
p1146
aS'"Perfect Stranger'
p1147
aS'"Deception'
p1148
aS'"Pride and Glory'
p1149
aS'"Duplicity'
p1150
aS'"Runner Runner'
p1151
aS'"Brake'
p1152
aS'"Texas Killing Fields'
p1153
aS'"Before the Devil Knows You\'re Dead'
p1154
aS'"Havoc'
p1155
aS'"The Man Who Wasn\'t There'
p1156
aS'"Hamlet'
p1157
aS'"Menace II Society'
p1158
aS'"The Crying Game'
p1159
aS'"The Pelican Brief'
p1160
aS'"Dead Man Walking'
p1161
aS'"Double Jeopardy'
p1162
aS'"High Crimes'
p1163
aS'"Columbus Circle'
p1164
aS'"Transsiberian'
p1165
aS'"The Burning Plain'
p1166
aS'"Elephant'
p1167
aS'"The Rainmaker'
p1168
aS'"Bully'
p1169
aS'"Above the Rim'
p1170
aS'"The Devil\'s Own'
p1171
aS'"The Gift'
p1172
aS'"Frailty'
p1173
aS'"Murder by Numbers'
p1174
aS'"Confidence'
p1175
aS'"Hustle & Flow'
p1176
aS'"The Invisible'
p1177
aS'"Megan Is Missing'
p1178
aS'"Faces in the Crowd'
p1179
aS'"Mother\'s Day'
p1180
aS'"The Disappearance of Alice Creed'
p1181
aS'"Mean Creek'
p1182
aS'"The Visitor'
p1183
aS'"Dancer in the Dark'
p1184
aS'"Wonderland'
p1185
aS'"Blood Simple.'
p1186
aS'"Less Than Zero'
p1187
aS'"Revenge'
p1188
aS'"Ransom'
p1189
aS'"A Perfect Murder'
p1190
aS'"A Simple Plan'
p1191
aS'"Snake Eyes'
p1192
aS'"The General\'s Daughter'
p1193
aS'"Oliver Twist'
p1194
aS'"Horsemen'
p1195
aS'"The Proposition'
p1196
aS'"Pathology'
p1197
aS'"Dirty Pretty Things'
p1198
aS'"Bound'
p1199
aS'"Romper Stomper'
p1200
aS'"Kalifornia'
p1201
aS'"Sea of Love'
p1202
aS'"A Perfect World'
p1203
aS'"Cop Land'
p1204
aS'"U Turn'
p1205
aS'"Femme Fatale'
p1206
aS'"4.3.2.1'
p1207
aS'"And Soon the Darkness'
p1208
aS'"In the Electric Mist'
p1209
aS'"The Football Factory'
p1210
aS'"Dead Man\'s Shoes'
p1211
aS'"The Yards'
p1212
aS'"Shallow Grave'
p1213
aS'"Bad Boys'
p1214
aS'"Quadrophenia'
p1215
aS'"Body Double'
p1216
aS'"The Client'
p1217
aS'"Midnight in the Garden of Good and Evil'
p1218
aS'"The Skulls'
p1219
aS'"Don\'t Say a Word'
p1220
aS'"Knockaround Guys'
p1221
aS'"Nine Dead'
p1222
aS'"The Butterfly Effect 3: Revelations'
p1223
aS'"The Air I Breathe'
p1224
aS'"Fragments'
p1225
aS'"Cassandra\'s Dream'
p1226
aS'"A Guide to Recognizing Your Saints'
p1227
aS'"Killshot'
p1228
aS'"Once Were Warriors'
p1229
aS'"Fresh'
p1230
aS'"Bad Lieutenant'
p1231
aS'"Frenzy'
p1232
aS'"The Grifters'
p1233
aS'"Juice'
p1234
aS'"Rising Sun'
p1235
aS'"Copycat'
p1236
aS'"Absolute Power'
p1237
aS'"Breakdown'
p1238
aS'"Antitrust'
p1239
aS'"In the Bedroom'
p1240
aS'"Twisted'
p1241
aS'"Captivity'
p1242
aS'"Five Minutes of Heaven'
p1243
aS'"Reservation Road'
p1244
aS'"The Escapist'
p1245
aS'"Trade'
p1246
aS'"The Accused'
p1247
aS'"Frantic'
p1248
aS'"The Long Goodbye'
p1249
aS'"Play Misty for Me'
p1250
aS'"Death Wish'
p1251
aS'"Just Cause'
p1252
aS'"Dead Presidents'
p1253
aS'"The Limits of Control'
p1254
aS'"Beyond a Reasonable Doubt'
p1255
aS'"Tenderness'
p1256
aS'"Flawless'
p1257
aS'"Where the Truth Lies'
p1258
aS'"Edison'
p1259
aS'"While She Was Out'
p1260
aS'"Frozen River'
p1261
aS'"The United States of Leland'
p1262
aS'"Hard Eight'
p1263
aS'"Drugstore Cowboy'
p1264
aS'"The Postman Always Rings Twice'
p1265
aS'"Get Carter'
p1266
aS'"Malice'
p1267
aS'"Eye for an Eye'
p1268
aS'"Mulholland Falls'
p1269
aS'"Belly'
p1270
aS'"Domestic Disturbance'
p1271
aS'"Freedomland'
p1272
aS'"Choose'
p1273
aS'"Brighton Rock'
p1274
aS'"Red Riding: In the Year of Our Lord 1974'
p1275
aS'"44 Inch Chest'
p1276
aS'"Lonely Hearts'
p1277
aS'"The Business'
p1278
aS'"Things to Do in Denver When You\'re Dead'
p1279
aS'"The Hot Spot'
p1280
aS'"River\'s Edge'
p1281
aS'"Twilight'
p1282
aS'"True Crime'
p1283
aS'"Narc'
p1284
aS'"Karla'
p1285
aS'"The Salton Sea'
p1286
aS'"Eye See You'
p1287
aS'"Shade'
p1288
aS'"House of Games'
p1289
aS'"American Gigolo'
p1290
aS'"Cruising'
p1291
aS'"The Cotton Club'
p1292
aS'"Quicksilver'
p1293
aS'"Internal Affairs'
p1294
aS'"Devil in a Blue Dress'
p1295
aS'"Dolores Claiborne'
p1296
aS'"Nick of Time'
p1297
aS'"Switchback'
p1298
aS'"Suspect Zero'
p1299
aS'"Haven'
p1300
aS'"Borderland'
p1301
aS'"Married Life'
p1302
aS'"Paranoid Park'
p1303
aS'"Surveillance'
p1304
aS'"The Alphabet Killer'
p1305
aS'"Takedown'
p1306
aS'"Under Suspicion'
p1307
aS'"The Last Seduction'
p1308
aS'"State of Grace'
p1309
aS'"At Close Range'
p1310
aS'"The Panic in Needle Park'
p1311
aS'"Death on the Nile'
p1312
aS'"Blue Steel'
p1313
aS'"Shattered'
p1314
aS'"The Watcher'
p1315
aS'"Brotherhood'
p1316
aS'"What Doesn\'t Kill You'
p1317
aS'"Bordertown'
p1318
aS'"Ripley\'s Game'
p1319
aS'"People I Know'
p1320
aS'"Sonny'
p1321
aS'"The Long Good Friday'
p1322
aS'"Atlantic City'
p1323
aS'"Mobsters'
p1324
aS'"City by the Sea'
p1325
aS'"The Flock'
p1326
aS'".45'
p1327
aS'"Gangster No. 1'
p1328
aS'"Unlawful Entry'
p1329
aS'"Needful Things'
p1330
aS'"Whisper'
p1331
aS'"Ordinary Decent Criminal'
p1332
aS'"Killing Zoe'
p1333
aS'"Over the Edge'
p1334
aS'"Walking Tall'
p1335
aS'"Performance'
p1336
aS'"The Taking of Pelham One Two Three'
p1337
aS'"Tightrope'
p1338
aS'"Black Widow'
p1339
aS'"Grand Canyon'
p1340
aS'"Black and White'
p1341
aS'"Dark Blue'
p1342
aS'"Feed'
p1343
aS'"Vera Drake'
p1344
aS'"The Reckoning'
p1345
aS'"Another Day in Paradise'
p1346
aS'"Mona Lisa'
p1347
aS'"Jagged Edge'
p1348
aS'"The Big Easy'
p1349
aS'"Extreme Measures'
p1350
aS'"Hoodlum'
p1351
aS'"Red Corner'
p1352
aS'"The Night Listener'
p1353
aS'"Anamorph'
p1354
aS'"Jindabyne'
p1355
aS'"The Horseman'
p1356
aS'"Shuttle'
p1357
aS'"The Limey'
p1358
aS'"Sweet Sixteen'
p1359
aS'"Better Luck Tomorrow'
p1360
aS'"Bang Bang You\'re Dead'
p1361
aS'"Amen.'
p1362
aS'"I.D.'
p1363
aS'"Running on Empty'
p1364
aS'"Straight Time'
p1365
aS'"Scum'
p1366
aS'"Rush'
p1367
aS'"Playing God'
p1368
aS'"Idlewild'
p1369
aS'"Redacted'
p1370
aS'"The Weight of Water'
p1371
aS'"Brother'
p1372
aS'"Rogue Trader'
p1373
aS'"Croupier'
p1374
aS'"Red Rock West'
p1375
aS'"Night Moves'
p1376
aS'"The Onion Field'
p1377
aS'"Jennifer Eight'
p1378
aS'"Thunderheart'
p1379
aS'"Before and After'
p1380
aS'"Gang Related'
p1381
aS'"In Too Deep'
p1382
aS'"Bless the Child'
p1383
aS'"Empire'
p1384
aS'"Julia'
p1385
aS'"London to Brighton'
p1386
aS'"The Zodiac'
p1387
aS'"Control'
p1388
aS'"Highway'
p1389
aS'"No Good Deed'
p1390
aS'"Class of 1984'
p1391
aS'"Bad Influence'
p1392
aS'"Consenting Adults'
p1393
aS'"Raising Cain'
p1394
aS'"Drowning Mona'
p1395
aS'"Animal Factory'
p1396
aS'"The Caveman\'s Valentine'
p1397
aS'"Albino Alligator'
p1398
aS'"Romeo Is Bleeding'
p1399
aS'"Miami Blues'
p1400
aS'"City of Ghosts'
p1401
aS'"Boxcar Bertha'
p1402
aS'"The Friends of Eddie Coyle'
p1403
aS'"Evil Under the Sun'
p1404
aS'"The Bedroom Window'
p1405
aS'"Blink'
p1406
aS'"Never Talk to Strangers'
p1407
aS'"I\'ll Sleep When I\'m Dead'
p1408
aS'"Owning Mahowny'
p1409
aS'"The Good Thief'
p1410
aS'"The Wisdom of Crocodiles'
p1411
aS'"Little Odessa'
p1412
aS'"Gloria'
p1413
aS'"The Harder They Come'
p1414
aS'"Sweet Sweetback\'s Baadasssss Song'
p1415
aS'"Electra Glide in Blue'
p1416
aS'"Telefon'
p1417
aS'"Suspect'
p1418
aS'"Johnny Handsome'
p1419
aS'"Levity'
p1420
aS'"Best Laid Plans'
p1421
aS'"Vulgar'
p1422
aS'"The Deep End'
p1423
aS'"The Unsaid'
p1424
aS'"The Funeral'
p1425
aS'"B. Monkey'
p1426
aS'"City of Industry'
p1427
aS'"Simple Men'
p1428
aS'"True Confessions'
p1429
aS'"The Mirror Crack\'d'
p1430
aS'"Ms. 45'
p1431
aS'"The Anderson Tapes'
p1432
aS'"Farewell, My Lovely'
p1433
aS'"Dirty Mary Crazy Larry'
p1434
aS'"The American Friend'
p1435
aS'"The Principal'
p1436
aS'"Sunset'
p1437
aS'"Palmetto'
p1438
aS'"The Crew'
p1439
aS'"Resurrection'
p1440
aS'"Face'
p1441
aS'"Phoenix'
p1442
aS'"Homicide'
p1443
aS'"The Hit'
p1444
aS'"10 to Midnight'
p1445
aS'"Prince of the City'
p1446
aS'"Blue Collar'
p1447
aS'"The Border'
p1448
aS'"52 Pick-Up'
p1449
aS'"The Morning After'
p1450
aS'"A Kiss Before Dying'
p1451
aS'"Guilty as Sin'
p1452
aS'"Gloria'
p1453
aS'"The Minus Man'
p1454
aS'"The Element of Crime'
p1455
aS'"Q & A'
p1456
aS'"White Sands'
p1457
aS'"Night Falls on Manhattan'
p1458
aS'"Disco Pigs'
p1459
aS'"Oxygen'
p1460
aS'"Clean, Shaven'
p1461
aS'"Murder by Decree'
p1462
aS'"Night and the City'
p1463
aS'"Dinner Rush'
p1464
aS'"Light Sleeper'
p1465
aS'"The Offence'
p1466
aS'"The Last of Sheila'
p1467
aS'"Mr. Klein'
p1468
aS'"Best Seller'
p1469
aS'"The Queen of Versailles'
p1470
aS'"5 Broken Cameras'
p1471
aS'"Fahrenheit 9/11'
p1472
aS'"Happy'
p1473
aS'"Bully'
p1474
aS'"Undefeated'
p1475
aS'"Baraka'
p1476
aS'"Blue Gold: World Water Wars'
p1477
aS'"West of Memphis'
p1478
aS'"Beauty Is Embarrassing'
p1479
aS'"Detropia'
p1480
aS'"Chasing Ice'
p1481
aS'"Happy People: A Year in the Taiga'
p1482
aS'"Up the Yangtze'
p1483
aS'"Alone in the Wilderness'
p1484
aS'"Cocaine Cowboys'
p1485
aS'"The One Percent'
p1486
aS'"Dear Zachary: A Letter to a Son About His Father'
p1487
aS'"Jiro Dreams of Sushi'
p1488
aS'"Facing Ali'
p1489
aS'"Ai Weiwei: Never Sorry'
p1490
aS'"How to Survive a Plague'
p1491
aS'"The Last Lions'
p1492
aS'"March of the Penguins'
p1493
aS'"Sicko'
p1494
aS'"Capitalism: A Love Story'
p1495
aS'"Bowling for Columbine'
p1496
aS'"The Cove'
p1497
aS'"Freakonomics'
p1498
aS'"Waiting for \'Superman\''
p1499
aS'"Restrepo'
p1500
aS'"Grizzly Man'
p1501
aS'"Senna'
p1502
aS'"Zeitgeist: Moving Forward'
p1503
aS'"An Inconvenient Truth'
p1504
aS'"GasLand'
p1505
aS'"Food, Inc.'
p1506
aS'"Man on Wire'
p1507
aS'"No End in Sight'
p1508
aS'"Jesus Camp'
p1509
aS'"This Film Is Not Yet Rated'
p1510
aS'"Fuck'
p1511
aS'"Murderball'
p1512
aS'"Bigger Stronger Faster*'
p1513
aS'"Tyson'
p1514
aS'"The King of Kong: A Fistful of Quarters'
p1515
aS'"When We Were Kings'
p1516
aS'"Dogtown and Z-Boys'
p1517
aS'"Pumping Iron'
p1518
aS'"The Corporation'
p1519
aS'"Cave of Forgotten Dreams'
p1520
aS'"Touching the Void'
p1521
aS'"Born Into Brothels: Calcutta\'s Red Light Kids'
p1522
aS'"The Fog of War: Eleven Lessons from the Life of Robert S. McNamara'
p1523
aS'"Encounters at the End of the World'
p1524
aS'"The Bridge'
p1525
aS'"Capturing the Friedmans'
p1526
aS'"Spellbound'
p1527
aS'"Microcosmos'
p1528
aS'"Hoop Dreams'
p1529
aS'"Why We Fight'
p1530
aS'"The Thin Blue Line'
p1531
aS'"Paradise Lost: The Child Murders at Robin Hood Hills'
p1532
aS'"Deliver Us from Evil'
p1533
aS'"Shoah'
p1534
aS'"Inside Job'
p1535
aS'"Hearts of Darkness: A Filmmaker\'s Apocalypse'
p1536
aS'"The Road to Guantanamo'
p1537
aS'"Waste Land'
p1538
aS'"Project Nim'
p1539
aS'"Life in a Day'
p1540
aS'"Hell and Back Again'
p1541
aS'"Armadillo'
p1542
aS'"Bill Cunningham New York'
p1543
aS'"The Tillman Story'
p1544
aS'"Catfish'
p1545
aS'"The Most Dangerous Man in America: Daniel Ellsberg and the Pentagon Papers'
p1546
aS'"Enron: The Smartest Guys in the Room'
p1547
aS'"Who Killed the Electric Car?'
p1548
aS'"King Corn'
p1549
aS'"Taxi to the Dark Side'
p1550
aS'"The Union: The Business Behind Getting High'
p1551
aS'"Waltz with Bashir'
p1552
aS'"Ghosts of the Abyss'
p1553
aS'"Sharkwater'
p1554
aS'"Chimpanzee'
p1555
aS'"Crumb'
p1556
aS'"In the Shadow of the Moon'
p1557
aS'"The Art of Flight'
p1558
aS'"Forks Over Knives'
p1559
aS'"Fat, Sick & Nearly Dead'
p1560
aS'"Pina'
p1561
aS'"The Age of Stupid'
p1562
aS'"Zeitgeist'
p1563
aS'"Everest'
p1564
aS'"Love the Beast'
p1565
aS'"Zeitgeist: Addendum'
p1566
aS'"\xd4nibus 174'
p1567
aS'"Roger & Me'
p1568
aS'"Nostalgia de la luz'
p1569
aS'"Porn Star: The Legend of Ron Jeremy'
p1570
aS'"Marina Abramovic: The Artist Is Present'
p1571
aS'"Surviving Progress'
p1572
aS'"The Invisible War'
p1573
aS'"I Am Bruce Lee'
p1574
aS'"9/11'
p1575
aS'"Grey Gardens'
p1576
aS'"Side by Side'
p1577
aS'"Waco: The Rules of Engagement'
p1578
aS'"The Times of Harvey Milk'
p1579
aS'"Reindeerspotting - pako Joulumaasta'
p1580
aS'"The Pervert\'s Guide to Cinema'
p1581
aS'"Seven Up!'
p1582
aS'"Sans soleil'
p1583
aS'"Bobby Fischer Against the World'
p1584
aS'"Hot Coffee'
p1585
aS'"Nanking'
p1586
aS'"The Pixar Story'
p1587
aS'"Second Skin'
p1588
aS'"Room 237'
p1589
aS'"The Central Park Five'
p1590
aS'"9 to 5: Days in Porn'
p1591
aS'"Hungry for Change'
p1592
aS'"First Position'
p1593
aS'"TT3D: Closer to the Edge'
p1594
aS'"We Are Legion: The Story of the Hacktivists'
p1595
aS'"Kimjongilia'
p1596
aS'"Stories We Tell'
p1597
aS'"Thinking XXX'
p1598
aS'"Food Matters'
p1599
aS'"American Movie'
p1600
aS'"The Interrupters'
p1601
aS'"The Wild and Wonderful Whites of West Virginia'
p1602
aS'"DMT: The Spirit Molecule'
p1603
aS'"Startup.com'
p1604
aS'"Fastest'
p1605
aS'"Four Horsemen'
p1606
aS'"The Endless Summer'
p1607
aS'"Paris Is Burning'
p1608
aS'"The September Issue'
p1609
aS'"The Business of Being Born'
p1610
aS'"Like Water'
p1611
aS'"Dear America: Letters Home from Vietnam'
p1612
aS'"My Date with Drew'
p1613
aS'"Salesman'
p1614
aS'"A Haunting in Connecticut'
p1615
aS'"For the Bible Tells Me So'
p1616
aS'"Are All Men Pedophiles?'
p1617
aS'"Body of War'
p1618
aS'"The End of America'
p1619
aS'"Paradise Lost 2: Revelations'
p1620
aS'"Children Underground'
p1621
aS'"Which Way Home'
p1622
aS'"Mondo cane'
p1623
aS'"Crude'
p1624
aS'"Harlan County U.S.A.'
p1625
aS'"Vanishing of the Bees'
p1626
aS'"The Last Days'
p1627
aS'"Chariots of the Gods'
p1628
aS'"Klitschko'
p1629
aS'"180\xb0 South'
p1630
aS'"The War on Democracy'
p1631
aS'"7 Plus Seven'
p1632
aS'"Bruce Lee: A Warrior\'s Journey'
p1633
aS'"A Personal Journey with Martin Scorsese Through American Movies'
p1634
aS'"28 Up'
p1635
aS'"Roman Polanski: Wanted and Desired'
p1636
aS'"Paper Clips'
p1637
aS'"Riding Giants'
p1638
aS'"Winged Migration'
p1639
aS'"The Atomic Cafe'
p1640
aS'"Being Elmo: A Puppeteer\'s Journey'
p1641
aS'"If a Tree Falls: A Story of the Earth Liberation Front'
p1642
aS'"Aliens of the Deep'
p1643
aS'"For All Mankind'
p1644
aS'"Trinity and Beyond: The Atomic Bomb Movie'
p1645
aS'"The Soviet Story'
p1646
aS'"Ashes and Snow'
p1647
aS'"Dark Days'
p1648
aS'"The Captains'
p1649
aS'"F for Fake'
p1650
aS'"To Be and to Have'
p1651
aS'"A Brief History of Time'
p1652
aS'"Life After People'
p1653
aS'"Wal-Mart: The High Cost of Low Price'
p1654
aS'"Grass'
p1655
aS'"The Celluloid Closet'
p1656
aS'"The White Diamond'
p1657
aS'"Les glaneurs et la glaneuse'
p1658
aS'"Gates of Heaven'
p1659
aS'"Control Room'
p1660
aS'"Promises'
p1661
aS'"The Sorrow and the Pity'
p1662
aS'"Page One: Inside the New York Times'
p1663
aS'"Public Speaking'
p1664
aS'"The Parking Lot Movie'
p1665
aS'"Mr. Death: The Rise and Fall of Fred A. Leuchter, Jr.'
p1666
aS'"Marwencol'
p1667
aS'"Best Worst Movie'
p1668
aS'"Hearts and Minds'
p1669
aS'"Not Quite Hollywood: The Wild, Untold Story of Ozploitation!'
p1670
aS'"The God Who Wasn\'t There'
p1671
aS'"Journey Into Amazing Caves'
p1672
aS'"Fighter Pilot: Operation Red Flag'
p1673
aS'"The Buddha'
p1674
aS'"Behind the Planet of the Apes'
p1675
aS'"A Film Unfinished'
p1676
aS'"Anne Frank Remembered'
p1677
aS'"Africa: The Serengeti'
p1678
aS'"How to Die in Oregon'
p1679
aS'"The Crimson Wing: Mystery of the Flamingos'
p1680
aS'"Turtle: The Incredible Journey'
p1681
aS'"One Day in September'
p1682
aS'"The Matrix Revisited'
p1683
aS'"Murder on a Sunday Morning'
p1684
aS'"Stanley Kubrick: A Life in Pictures'
p1685
aS'"God Grew Tired of Us'
p1686
aS'"The Weather Underground'
p1687
aS'"Darwin\'s Nightmare'
p1688
aS'"Tarnation'
p1689
aS'"Valentino: The Last Emperor'
p1690
aS'"The Pixar Shorts: A Short History'
p1691
aS'"Mein liebster Feind - Klaus Kinski'
p1692
aS'"Die Geschichte vom weinenden Kamel'
p1693
aS'"Beyond the Mat'
p1694
aS'"Looking for Richard'
p1695
aS'"Cocaine Cowboys 2'
p1696
aS'"South of the Border'
p1697
aS'"Woody Allen: A Documentary'
p1698
aS'"Faster'
p1699
aS'"Overnight'
p1700
aS'"The Beautiful Truth'
p1701
aS'"Comic-Con Episode IV: A Fan\'s Hope'
p1702
aS'"The Pervert\'s Guide to Ideology'
p1703
aS'"Brooklyn Castle'
p1704
aS'"Ethos'
p1705
aS'"Comedian'
p1706
aS'"Searching for the Wrong-Eyed Jesus'
p1707
aS'"Diana Vreeland: The Eye Has to Travel'
p1708
aS'"The Jeffrey Dahmer Files'
p1709
aS'"Revenge of the Electric Car'
p1710
aS'"Z Channel: A Magnificent Obsession'
p1711
aS'"The Shock Doctrine'
p1712
aS'"The Light Bulb Conspiracy'
p1713
aS'"Heckler'
p1714
aS'"Pink Ribbons, Inc.'
p1715
aS'"Lost in La Mancha'
p1716
aS'"Art & Copy'
p1717
aS'"Brother\'s Keeper'
p1718
aS'"Hands on a Hard Body: The Documentary'
p1719
aS'"Going to Pieces: The Rise and Fall of the Slasher Film'
p1720
aS'"Victory Through Air Power'
p1721
aS'"Manufactured Landscapes'
p1722
aS'"Pitch'
p1723
aS'"4 Little Girls'
p1724
aS'"Dust to Glory'
p1725
aS'"Talhotblond:'
p1726
aS'"The Cruise'
p1727
aS'"Transcendent Man'
p1728
aS'"On Any Sunday'
p1729
aS'"Resurrect Dead: The Mystery of the Toynbee Tiles'
p1730
aS'"In the Realms of the Unreal'
p1731
aS'"The Kid Stays in the Picture'
p1732
aS'"The War Room'
p1733
aS'"Joe Strummer: The Future Is Unwritten'
p1734
aS'"A/k/a Tommy Chong'
p1735
aS'"Aftermath: Population Zero'
p1736
aS'"The Future of Food'
p1737
aS'"Sweetgrass'
p1738
aS'"Sherman\'s March'
p1739
aS'"The American Scream'
p1740
aS'"American Pimp'
p1741
aS'"American Grindhouse'
p1742
aS'"Hugh Hefner: Playboy, Activist and Rebel'
p1743
aS'"H.H. Holmes: America\'s First Serial Killer'
p1744
aS'"Wordplay'
p1745
aS'"Client 9: The Rise and Fall of Eliot Spitzer'
p1746
aS'"American Drug War: The Last White Hope'
p1747
aS'"A Crude Awakening: The Oil Crash'
p1748
aS'"Jean-Michel Basquiat: The Radiant Child'
p1749
aS'"Burzynski'
p1750
aS'"49 Up'
p1751
aS'"Charlie: The Life and Art of Charles Chaplin'
p1752
aS'"42: Forty Two Up'
p1753
aS'"Sea Monsters: A Prehistoric Adventure'
p1754
aS'"Paragraph 175'
p1755
aS'"Trumbo'
p1756
aS'"Blue Planet'
p1757
aS'"Magnificent Desolation: Walking on the Moon 3D'
p1758
aS'"Lektionen in Finsternis'
p1759
aS'"Manufacturing Consent: Noam Chomsky and the Media'
p1760
aS'"Confessions of a Superhero'
p1761
aS'"The Endurance'
p1762
aS'"Examined Life'
p1763
aS'"The Rape of Europa'
p1764
aS'"Saving Face'
p1765
aS'"We Were Here'
p1766
aS'"Root of All Evil?'
p1767
aS'"Big River Man'
p1768
aS'"Alien Planet'
p1769
aS'"Last Stand of the 300'
p1770
aS'"The Long Way Home'
p1771
aS'"American Dream'
p1772
aS'"Incident at Oglala'
p1773
aS'"Plastic Planet'
p1774
aS'"Jos\xe9 e Pilar'
p1775
aS'"Les plages d\'Agn\xe8s'
p1776
aS'"The Devil Came on Horseback'
p1777
aS'"Lost Boys of Sudan'
p1778
aS'"Visions of Light'
p1779
aS'"I.O.U.S.A.'
p1780
aS'"A Decade Under the Influence'
p1781
aS'"Easy Riders, Raging Bulls: How the Sex, Drugs and Rock \'N\' Roll Generation Saved Hollywood'
p1782
aS'"Herb & Dorothy'
p1783
aS'"Reagan'
p1784
aS'"Shadow Company'
p1785
aS'"Endgame: Blueprint for Global Enslavement'
p1786
aS'"Little Dieter Needs to Fly'
p1787
aS'"The Weight of Chains'
p1788
aS'"Witch Hunt'
p1789
aS'"Pecados de mi padre'
p1790
aS'"The Horse Boy'
p1791
aS'"Darfur Now'
p1792
aS'"Darfur Now'
p1793
aS'"The Wild Parrots of Telegraph Hill'
p1794
aS'"The Wild Parrots of Telegraph Hill'
p1795
aS'"TerrorStorm: A History of Government-Sponsored Terrorism'
p1796
aS'"Fast, Cheap & Out of Control'
p1797
aS'"My Architect'
p1798
aS'"Gay Sex in the 70s'
p1799
aS'"Fuel'
p1800
aS'"We Live in Public'
p1801
aS'"The Endless Summer 2'
p1802
aS'"Vernon, Florida'
p1803
aS'"Fall from Grace'
p1804
aS'"The Great Global Warming Swindle'
p1805
aS'"Clarkson: The Good, the Bad, the Ugly'
p1806
aS'"Mr. Untouchable'
p1807
aS'"Hell House'
p1808
aS'"The Brandon Teena Story'
p1809
aS'"Halloween: 25 Years of Terror'
p1810
aS'"My Kid Could Paint That'
p1811
aS'"Maxed Out: Hard Times, Easy Credit and the Era of Predatory Lenders'
p1812
aS'"9/11: The Falling Man'
p1813
aS'"Sick: The Life & Death of Bob Flanagan, Supermasochist'
p1814
aS'"Fat Head'
p1815
aS'"I Think We\'re Alone Now'
p1816
aS'"Full Tilt Boogie'
p1817
aS'"Surfwise'
p1818
aS'"The Elephant in the Living Room'
p1819
aS'"Trekkies'
p1820
aS'"Let There Be Light'
p1821
aS'"American Swing'
p1822
aS'"Empire of Dreams: The Story of the \'Star Wars\' Trilogy'
p1823
aS'"The Garden'
p1824
aS'"The Lottery'
p1825
aS'"Southern Comfort'
p1826
aS'"Machete Maidens Unleashed!'
p1827
aS'"Tales from the Script'
p1828
aS'"Prom Night in Mississippi'
p1829
aS'"The War Tapes'
p1830
aS'"Fade to Black'
p1831
aS'"And Everything Is Going Fine'
p1832
aS'"My Voyage to Italy'
p1833
aS'"Ecstasy of Order: The Tetris Masters'
p1834
aS'"The Take'
p1835
aS'"Catching Hell'
p1836
aS'"Fetishes'
p1837
aS'"Once in a Lifetime: The Extraordinary Story of the New York Cosmos'
p1838
aS'"Mondovino'
p1839
aS'"Look, Up in the Sky! The Amazing Story of Superman'
p1840
aS'"8: The Mormon Proposition'
p1841
aS'"Reel Injun'
p1842
aS'"That\'s It, That\'s All.'
p1843
aS'"Divine Trash'
p1844
aS'"Unzipped'
p1845
aS'"Future by Design'
p1846
aS'"Kings of Pastry'
p1847
aS'"These Amazing Shadows'
p1848
aS'"Comic Book Confidential'
p1849
aS'"The Trials of Henry Kissinger'
p1850
aS'"The Trials of Darryl Hunt'
p1851
aS'"Bhutto'
p1852
aS'"Isle of Flowers'
p1853
aS'"Megacities'
p1854
aS'"Into the Arms of Strangers: Stories of the Kindertransport'
p1855
aS'"H\xf4tel Terminus'
p1856
aS'"Marjoe'
p1857
aS'"In the Year of the Pig'
p1858
aS'"Cameraman: The Life and Work of Jack Cardiff'
p1859
aS'"The Boys of Baraka'
p1860
aS'"Stevie'
p1861
aS'"Genghis Blues'
p1862
aS'"21 Up'
p1863
aS'"Scared Straight!'
p1864
aS'"The Goebbels Experiment'
p1865
aS'"The Living Sea'
p1866
aS'"I Knew It Was You: Rediscovering John Cazale'
p1867
aS'"Iraq for Sale: The War Profiteers'
p1868
aS'"General Idi Amin Dada'
p1869
aS'"Iraq in Fragments'
p1870
aS'"Smash His Camera'
p1871
aS'"The Making of \'Jurassic Park\''
p1872
aS'"The Making of \'Jurassic Park\''
p1873
aS'"Occupation 101'
p1874
aS'"Occupation 101'
p1875
aS'"Streetwise'
p1876
aS'"Streetwise'
p1877
aS'"The Panama Deception'
p1878
aS'"Im toten Winkel - Hitlers Sekret\xe4rin'
p1879
aS'"Billy the Kid'
p1880
aS'"Freedom Downtime'
p1881
aS'"One Night in Turin'
p1882
aS'"Buy the Ticket, Take the Ride: Hunter S. Thompson on Film'
p1883
aS'"Lasseter\'s Bones'
p1884
aS'"Unmistaken Child'
p1885
aS'"That Guy... Who Was in That Thing'
p1886
aS'"Between the Folds'
p1887
aS'"William S. Burroughs: A Man Within'
p1888
aS'"Brothers at War'
p1889
aS'"The Short Films of David Lynch'
p1890
aS'"Marilyn Monroe: The Final Days'
p1891
aS'"With Great Power: The Stan Lee Story'
p1892
aS'"Garbage Warrior'
p1893
aS'"The Battle of Midway'
p1894
aS'"Boy Interrupted'
p1895
aS'"Winter Soldier'
p1896
aS'"Of Time and the City'
p1897
aS'"The James Bond Story'
p1898
aS'"Dancing Outlaw'
p1899
aS'"Wishful Drinking'
p1900
aS'"Day of the Fight'
p1901
aS'"Video Nasties: Moral Panic, Censorship & Videotape'
p1902
aS'"Werner Herzog Eats His Shoe'
p1903
aS'"Cinemania'
p1904
aS'"Prelude to War'
p1905
aS'"Julianes Sturz in den Dschungel'
p1906
aS'"The Real Dirt on Farmer John'
p1907
aS'"The Nature of Existence'
p1908
aS'"How to Draw a Bunny'
p1909
aS'"Los Angeles Plays Itself'
p1910
aS'"The Living Desert'
p1911
aS'"A Skin Too Few: The Days of Nick Drake'
p1912
aS'"The End of Suburbia: Oil Depletion and the Collapse of the American Dream'
p1913
aS'"Stoked: The Rise and Fall of Gator'
p1914
aS'"Go Tigers!'
p1915
aS'"Heidi Fleiss: Hollywood Madam'
p1916
aS'"Prodigal Sons'
p1917
aS'"Ryan'
p1918
aS'"Fabulous! The Story of Queer Cinema'
p1919
aS'"My Enemy\'s Enemy'
p1920
aS'"Ghosts of Abu Ghraib'
p1921
aS'"Under Our Skin'
p1922
aS'"Fidel'
p1923
aS'"Mark Twain'
p1924
aS'"Letting Go of God'
p1925
aS'"35 Up'
p1926
aS'"Lewis & Clark: The Journey of the Corps of Discovery'
p1927
aS'"Stanley Kubrick\'s Boxes'
p1928
aS'"Unknown White Male'
p1929
aS'"My Flesh and Blood'
p1930
aS'"Die Macht der Bilder: Leni Riefenstahl'
p1931
aS'"War Made Easy: How Presidents & Pundits Keep Spinning Us to Death'
p1932
aS'"The Autobiography of Nicolae Ceausescu'
p1933
aS'"Memoria del saqueo'
p1934
aS'"Common Threads: Stories from the Quilt'
p1935
aS'"AFI\'s 100 Years... 100 Movies: America\'s Greatest Movies'
p1936
aS'"Living in Emergency: Stories of Doctors Without Borders'
p1937
aS'"The Cats of Mirikitani'
p1938
aS'"Stardust: The Bette Davis Story'
p1939
aS'"Anima Mundi'
p1940
aS'"JLG/JLG - autoportrait de d\xe9cembre'
p1941
aS'"Anna: Ot shesti do vosemnadtsati'
p1942
aS'"Best Boy'
p1943
aS'"I Have Never Forgotten You: The Life & Legacy of Simon Wiesenthal'
p1944
aS'"The Ballad of Big Al'
p1945
aS'"Noam Chomsky: Rebel Without a Pause'
p1946
aS'"Project Grizzly'
p1947
aS'"Instrument'
p1948
aS'"Bergman Island'
p1949
aS'"American Radical: The Trials of Norman Finkelstein'
p1950
aS'"Hitman Hart: Wrestling with Shadows'
p1951
aS'"Touch the Sound: A Sound Journey with Evelyn Glennie'
p1952
aS'"Curse of the Blair Witch'
p1953
aS'"Manson'
p1954
aS'"The Four Year Plan'
p1955
aS'"Tokyo-Ga'
p1956
aS'"Bond Girls Are Forever'
p1957
aS'"The Beales of Grey Gardens'
p1958
aS'"Thrilla in Manila'
p1959
aS'"Bastards of the Party'
p1960
aS'"Double Take'
p1961
aS'"Searching for Debra Winger'
p1962
aS'"The American Nightmare'
p1963
aS'"We Stand Alone Together'
p1964
aS'"Powers of Ten'
p1965
aS'"American Zeitgeist'
p1966
aS'"The Godfather Family: A Look Inside'
p1967
aS'"The Monday Night War: WWE Raw vs. WCW Nitro'
p1968
aS'"Brando'
p1969
aS'"Frank Lloyd Wright'
p1970
aS'"Before Flying Back to Earth'
p1971
aS'"The World According to Bush'
p1972
aS'"Hitchcock: Shadow of a Genius'
p1973
aS'"Peace, Propaganda & the Promised Land'
p1974
aS'"Pusk\xe1s Hungary'
p1975
aS'"100 Years at the Movies'
p1976
aS'"Muhammad: Legacy of a Prophet'
p1977
aS'"Precious Images'
p1978
aS'"The Other Final'
p1979
aS'"Pulp Fiction'
p1980
aS'"The Silence of the Lambs'
p1981
aS'"Jack Reacher'
p1982
aS'"Goodfellas'
p1983
aS'"Se7en'
p1984
aS'"Sin City'
p1985
aS'"The Departed'
p1986
aS'"The Prestige'
p1987
aS'"V for Vendetta'
p1988
aS'"Casino Royale'
p1989
aS'"Shooter'
p1990
aS'"Transformers'
p1991
aS'"The Dark Knight'
p1992
aS'"Taken'
p1993
aS'"Inception'
p1994
aS'"Red'
p1995
aS'"Shutter Island'
p1996
aS'"Fast Five'
p1997
aS'"Limitless'
p1998
aS'"The Girl with the Dragon Tattoo'
p1999
aS'"Mission: Impossible - Ghost Protocol'
p2000
aS'"The Cabin in the Woods'
p2001
aS'"The Dark Knight Rises'
p2002
aS'"End of Watch'
p2003
aS'"Looper'
p2004
aS'"Skyfall'
p2005
aS'"Zero Dark Thirty'
p2006
aS'"Trance'
p2007
aS'"Side Effects'
p2008
aS'"Disconnect'
p2009
aS'"World War Z'
p2010
aS'"The Hunger Games: Catching Fire'
p2011
aS'"Now You See Me'
p2012
aS'"The Impossible'
p2013
aS'"The Boondock Saints'
p2014
aS'"Furious 6'
p2015
aS'"Blade Runner'
p2016
aS'"Die Hard'
p2017
aS'"Terminator 2: Judgment Day'
p2018
aS'"L\xe9on: The Professional'
p2019
aS'"The Usual Suspects'
p2020
aS'"Heat'
p2021
aS'"The Sixth Sense'
p2022
aS'"Snatch.'
p2023
aS'"Red Dragon'
p2024
aS'"The Italian Job'
p2025
aS'"X-Men: The Last Stand'
p2026
aS'"The Bourne Ultimatum'
p2027
aS'"Live Free or Die Hard'
p2028
aS'"No Country for Old Men'
p2029
aS'"The Incredible Hulk'
p2030
aS'"RocknRolla'
p2031
aS'"District 9'
p2032
aS'"Law Abiding Citizen'
p2033
aS'"Sherlock Holmes'
p2034
aS'"The A-Team'
p2035
aS'"Black Swan'
p2036
aS'"The Book of Eli'
p2037
aS'"The Town'
p2038
aS'"Source Code'
p2039
aS'"Super 8'
p2040
aS'"Sherlock Holmes: A Game of Shadows'
p2041
aS'"Tinker Tailor Soldier Spy'
p2042
aS'"Chronicle'
p2043
aS'"The Grey'
p2044
aS'"Stoker'
p2045
aS'"The Hurt Locker'
p2046
aS'"Memento'
p2047
aS'"Reservoir Dogs'
p2048
aS'"Jaws'
p2049
aS'"Aliens'
p2050
aS'"The Untouchables'
p2051
aS'"GoldenEye'
p2052
aS'"Twelve Monkeys'
p2053
aS'"The Rock'
p2054
aS'"L.A. Confidential'
p2055
aS'"Ocean\'s Eleven'
p2056
aS'"Training Day'
p2057
aS'"The Bourne Identity'
p2058
aS'"28 Days Later...'
p2059
aS'"Underworld'
p2060
aS'"X2'
p2061
aS'"Mystic River'
p2062
aS'"The Bourne Supremacy'
p2063
aS'"The Butterfly Effect'
p2064
aS'"Collateral'
p2065
aS'"Kill Bill: Vol. 2'
p2066
aS'"The Island'
p2067
aS'"Serenity'
p2068
aS'"Inside Man'
p2069
aS'"Mission: Impossible III'
p2070
aS'"Blood Diamond'
p2071
aS'"I Am Legend'
p2072
aS'"The Mist'
p2073
aS'"Zodiac'
p2074
aS'"127 Hours'
p2075
aS'"Hanna'
p2076
aS'"The Lincoln Lawyer'
p2077
aS'"Unknown'
p2078
aS'"The Raid: Redemption'
p2079
aS'"Margin Call'
p2080
aS'"In Bruges'
p2081
aS'"Sunshine'
p2082
aS'"Children of Men'
p2083
aS'"The Machinist'
p2084
aS'"Lock, Stock and Two Smoking Barrels'
p2085
aS'"The Conjuring'
p2086
aS'"The Adjustment Bureau'
p2087
aS'"Slumdog Millionaire'
p2088
aS'"The Next Three Days'
p2089
aS'"Marathon Man'
p2090
aS'"Carrie'
p2091
aS'"The Thing'
p2092
aS'"The Godfather: Part III'
p2093
aS'"Basic Instinct'
p2094
aS'"A Few Good Men'
p2095
aS'"True Romance'
p2096
aS'"True Lies'
p2097
aS'"Die Hard: With a Vengeance'
p2098
aS'"Mission: Impossible'
p2099
aS'"A Time to Kill'
p2100
aS'"The Game'
p2101
aS'"Jackie Brown'
p2102
aS'"Eyes Wide Shut'
p2103
aS'"The Ring'
p2104
aS'"Identity'
p2105
aS'"Dawn of the Dead'
p2106
aS'"Man on Fire'
p2107
aS'"Crank'
p2108
aS'"Lucky Number Slevin'
p2109
aS'"Apocalypto'
p2110
aS'"28 Weeks Later'
p2111
aS'"Gone Baby Gone'
p2112
aS'"Ocean\'s Thirteen'
p2113
aS'"Sweeney Todd: The Demon Barber of Fleet Street'
p2114
aS'"Cloverfield'
p2115
aS'"Rambo'
p2116
aS'"Body of Lies'
p2117
aS'"Valkyrie'
p2118
aS'"9'
p2119
aS'"Orphan'
p2120
aS'"Get the Gringo'
p2121
aS'"We Need to Talk About Kevin'
p2122
aS'"Death Proof'
p2123
aS'"Mulholland Dr.'
p2124
aS'"Die Hard 2'
p2125
aS'"Point Break'
p2126
aS'"In the Name of the Father'
p2127
aS'"Sleepers'
p2128
aS'"The Devil\'s Advocate'
p2129
aS'"Donnie Brasco'
p2130
aS'"Face/Off'
p2131
aS'"Enemy of the State'
p2132
aS'"Rush Hour'
p2133
aS'"Pitch Black'
p2134
aS'"Traffic'
p2135
aS'"Insomnia'
p2136
aS'"Phone Booth'
p2137
aS'"National Treasure'
p2138
aS'"Lord of War'
p2139
aS'"Deja Vu'
p2140
aS'"Fracture'
p2141
aS'"Michael Clayton'
p2142
aS'"Coraline'
p2143
aS'"Green Zone'
p2144
aS'"Unthinkable'
p2145
aS'"Primer'
p2146
aS'"Layer Cake'
p2147
aS'"Hard Candy'
p2148
aS'"Pi'
p2149
aS'"WarGames'
p2150
aS'"Beverly Hills Cop'
p2151
aS'"Lethal Weapon'
p2152
aS'"The Hunt for Red October'
p2153
aS'"The Fugitive'
p2154
aS'"Speed'
p2155
aS'"Ronin'
p2156
aS'"Enemy at the Gates'
p2157
aS'"The Others'
p2158
aS'"Panic Room'
p2159
aS'"Road to Perdition'
p2160
aS'"Four Brothers'
p2161
aS'"A History of Violence'
p2162
aS'"Munich'
p2163
aS'"Disturbia'
p2164
aS'"Eastern Promises'
p2165
aS'"Grindhouse'
p2166
aS'"The Kingdom'
p2167
aS'"Mr. Brooks'
p2168
aS'"The Bank Job'
p2169
aS'"Brothers'
p2170
aS'"The Ghost Writer'
p2171
aS'"The Debt'
p2172
aS'"The East'
p2173
aS'"Gravity'
p2174
aS'"Take Shelter'
p2175
aS'"The Devil\'s Double'
p2176
aS'"The Count of Monte Cristo'
p2177
aS'"Deliverance'
p2178
aS'"For Your Eyes Only'
p2179
aS'"The Warriors'
p2180
aS'"First Blood'
p2181
aS'"Star Trek II: The Wrath of Khan'
p2182
aS'"Clue'
p2183
aS'"Witness'
p2184
aS'"Lethal Weapon 2'
p2185
aS'"Cape Fear'
p2186
aS'"Clear and Present Danger'
p2187
aS'"Desperado'
p2188
aS'"Primal Fear'
p2189
aS'"Star Trek: First Contact'
p2190
aS'"Street Kings'
p2191
aS'"Anonymous'
p2192
aS'"Kill the Irishman'
p2193
aS'"The Guard'
p2194
aS'"Buried'
p2195
aS'"Match Point'
p2196
aS'"21 Grams'
p2197
aS'"Cube'
p2198
aS'"Blue Velvet'
p2199
aS'"Enter the Dragon'
p2200
aS'"Live and Let Die'
p2201
aS'"The Spy Who Loved Me'
p2202
aS'"Mad Max'
p2203
aS'"Mad Max 2: The Road Warrior'
p2204
aS'"Manhunter'
p2205
aS'"Angel Heart'
p2206
aS'"The Abyss'
p2207
aS'"They Live'
p2208
aS'"Misery'
p2209
aS'"Falling Down'
p2210
aS'"The Insider'
p2211
aS'"From Hell'
p2212
aS'"Spy Game'
p2213
aS'"John Q'
p2214
aS'"The Constant Gardener'
p2215
aS'"Syriana'
p2216
aS'"Running Scared'
p2217
aS'"We Own the Night'
p2218
aS'"The Orphanage'
p2219
aS'"Traitor'
p2220
aS'"Fair Game'
p2221
aS'"Trust'
p2222
aS'"The Whistleblower'
p2223
aS'"Triangle'
p2224
aS'"Harry Brown'
p2225
aS'"Following'
p2226
aS'"Blood In, Blood Out'
p2227
aS'"Dirty Harry'
p2228
aS'"Escape from Alcatraz'
p2229
aS'"JFK'
p2230
aS'"Star Trek VI: The Undiscovered Country'
p2231
aS'"Patriot Games'
p2232
aS'"Crimson Tide'
p2233
aS'"Fallen'
p2234
aS'"Arlington Road'
p2235
aS'"Payback'
p2236
aS'"The Talented Mr. Ripley'
p2237
aS'"The Thirteenth Floor'
p2238
aS'"Confessions of a Dangerous Mind'
p2239
aS'"Unleashed'
p2240
aS'"In the Valley of Elah'
p2241
aS'"The Lookout'
p2242
aS'"Rendition'
p2243
aS'"Animal Kingdom'
p2244
aS'"Exam'
p2245
aS'"Miller\'s Crossing'
p2246
aS'"The Name of the Rose'
p2247
aS'"Body Heat'
p2248
aS'"Out of Sight'
p2249
aS'"Boiler Room'
p2250
aS'"Soylent Green'
p2251
aS'"Vanishing Point'
p2252
aS'"Fatal Attraction'
p2253
aS'"Presumed Innocent'
p2254
aS'"Strange Days'
p2255
aS'"Bringing Out the Dead'
p2256
aS'"Frequency'
p2257
aS'"The Score'
p2258
aS'"The Life of David Gale'
p2259
aS'"Matchstick Men'
p2260
aS'"Notes on a Scandal'
p2261
aS'"Breach'
p2262
aS'"Eden Lake'
p2263
aS'"Before the Devil Knows You\'re Dead'
p2264
aS'"Cypher'
p2265
aS'"Lost Highway'
p2266
aS'"Hamlet'
p2267
aS'"Straw Dogs'
p2268
aS'"The Conversation'
p2269
aS'"Mississippi Burning'
p2270
aS'"The Last Boy Scout'
p2271
aS'"The Crying Game'
p2272
aS'"Sneakers'
p2273
aS'"Grosse Pointe Blank'
p2274
aS'"The Rainmaker'
p2275
aS'"The Negotiator'
p2276
aS'"Thirteen Days'
p2277
aS'"Runaway Jury'
p2278
aS'"Nothing But the Truth'
p2279
aS'"Elephant'
p2280
aS'"Bully'
p2281
aS'"The French Connection'
p2282
aS'"48 Hrs.'
p2283
aS'"Twin Peaks: Fire Walk with Me'
p2284
aS'"Go'
p2285
aS'"Frailty'
p2286
aS'"High Tension'
p2287
aS'"Harsh Times'
p2288
aS'"Captain Phillips'
p2289
aS'"Inland Empire'
p2290
aS'"The Hunting Party'
p2291
aS'"Blood Simple.'
p2292
aS'"The Dead Zone'
p2293
aS'"Fright Night'
p2294
aS'"Midnight Run'
p2295
aS'"In the Line of Fire'
p2296
aS'"Maverick'
p2297
aS'"Get Shorty'
p2298
aS'"The X Files'
p2299
aS'"A Simple Plan'
p2300
aS'"The Protector'
p2301
aS'"Dirty Pretty Things'
p2302
aS'"Bound'
p2303
aS'"Bitter Moon'
p2304
aS'"Sleuth'
p2305
aS'"Alive'
p2306
aS'"A Perfect World'
p2307
aS'"Cop Land'
p2308
aS'"The Edge'
p2309
aS'"One Hour Photo'
p2310
aS'"Dead Man\'s Shoes'
p2311
aS'"Ghost Dog: The Way of the Samurai'
p2312
aS'"Shallow Grave'
p2313
aS'"Bad Boys'
p2314
aS'"The Wicker Man'
p2315
aS'"Don\'t Look Now'
p2316
aS'"Magnum Force'
p2317
aS'"Boy Wonder'
p2318
aS'"The Air I Breathe'
p2319
aS'"Fresh'
p2320
aS'"Juice'
p2321
aS'"Frenzy'
p2322
aS'"The Eagle Has Landed'
p2323
aS'"The Grifters'
p2324
aS'"Breakdown'
p2325
aS'"Ravenous'
p2326
aS'"The Escapist'
p2327
aS'"Trade'
p2328
aS'"After Hours'
p2329
aS'"Henry: Portrait of a Serial Killer'
p2330
aS'"The Changeling'
p2331
aS'"Altered States'
p2332
aS'"The Long Goodbye'
p2333
aS'"The Day of the Jackal'
p2334
aS'"Play Misty for Me'
p2335
aS'"The Andromeda Strain'
p2336
aS'"The Big Boss'
p2337
aS'"Death Wish'
p2338
aS'"Family Plot'
p2339
aS'"Frantic'
p2340
aS'"Murder in the First'
p2341
aS'"Michael Collins'
p2342
aS'"The Pledge'
p2343
aS'"Fifty Dead Men Walking'
p2344
aS'"Mesrine: Public Enemy #1'
p2345
aS'"Titus'
p2346
aS'"The Player'
p2347
aS'"Near Dark'
p2348
aS'"Blow Out'
p2349
aS'"Dressed to Kill'
p2350
aS'"Get Carter'
p2351
aS'"Murder by Death'
p2352
aS'"The Tenant'
p2353
aS'"The Boys from Brazil'
p2354
aS'"Dead Ringers'
p2355
aS'"Dead Calm'
p2356
aS'"Batman: Mask of the Phantasm'
p2357
aS'"Operation Condor'
p2358
aS'"The Matador'
p2359
aS'"Red Riding: In the Year of Our Lord 1974'
p2360
aS'"Thief'
p2361
aS'"Dead Again'
p2362
aS'"Narc'
p2363
aS'"The Salton Sea'
p2364
aS'"Thursday'
p2365
aS'"The Getaway'
p2366
aS'"...And Justice for All.'
p2367
aS'"Silkwood'
p2368
aS'"To Live and Die in L.A.'
p2369
aS'"The Hitcher'
p2370
aS'"Red'
p2371
aS'"House of Games'
p2372
aS'"Sholay'
p2373
aS'"Silver Streak'
p2374
aS'"Absence of Malice'
p2375
aS'"Dolores Claiborne'
p2376
aS'"The Contender'
p2377
aS'"Interstate 60: Episodes of the Road'
p2378
aS'"The Last Seduction'
p2379
aS'"State of Grace'
p2380
aS'"Salvador'
p2381
aS'"The Mechanic'
p2382
aS'"Klute'
p2383
aS'"The Little Girl Who Lives Down the Lane'
p2384
aS'"Death on the Nile'
p2385
aS'"The China Syndrome'
p2386
aS'"Time After Time'
p2387
aS'"Return to Paradise'
p2388
aS'"Red Road'
p2389
aS'"Buffalo Soldiers'
p2390
aS'"Poolhall Junkies'
p2391
aS'"The Long Good Friday'
p2392
aS'"Colossus: The Forbin Project'
p2393
aS'"The Stepford Wives'
p2394
aS'"Deep Red'
p2395
aS'"Runaway Train'
p2396
aS'"Veronica Guerin'
p2397
aS'"Swimming with Sharks'
p2398
aS'"Southern Comfort'
p2399
aS'"Supercop'
p2400
aS'"Walking Tall'
p2401
aS'"Red Sun'
p2402
aS'"The Odessa File'
p2403
aS'"The Taking of Pelham One Two Three'
p2404
aS'"Assault on Precinct 13'
p2405
aS'"The Driver'
p2406
aS'"Shotgun Stories'
p2407
aS'"Two Hands'
p2408
aS'"The Assignment'
p2409
aS'"Sister My Sister'
p2410
aS'"The General'
p2411
aS'"The Great Train Robbery'
p2412
aS'"The Limey'
p2413
aS'"Bang Bang You\'re Dead'
p2414
aS'"Death and the Maiden'
p2415
aS'"The Spanish Prisoner'
p2416
aS'"Eye of the Needle'
p2417
aS'"Sisters'
p2418
aS'"Year of the Dragon'
p2419
aS'"Metropolis'
p2420
aS'"Brother'
p2421
aS'"Red Rock West'
p2422
aS'"Bad Timing: A Sensual Obsession'
p2423
aS'"Tenebre'
p2424
aS'"Night Moves'
p2425
aS'"Rolling Thunder'
p2426
aS'"Julia'
p2427
aS'"London to Brighton'
p2428
aS'"Deathtrap'
p2429
aS'"L\'uccello dalle piume di cristallo'
p2430
aS'"The Parallax View'
p2431
aS'"Bring Me the Head of Alfredo Garcia'
p2432
aS'"Obsession'
p2433
aS'"Affliction'
p2434
aS'"The Friends of Eddie Coyle'
p2435
aS'"Un flic'
p2436
aS'"The In-Laws'
p2437
aS'"Evil Under the Sun'
p2438
aS'"Owning Mahowny'
p2439
aS'"One False Move'
p2440
aS'"Gloria'
p2441
aS'"The Private Life of Sherlock Holmes'
p2442
aS'"Electra Glide in Blue'
p2443
aS'"The Seven-Per-Cent Solution'
p2444
aS'"Zero Effect'
p2445
aS'"A Dry White Season'
p2446
aS'"Suburbia'
p2447
aS'"Death Hunt'
p2448
aS'"The American Friend'
p2449
aS'"Homicide'
p2450
aS'"White Dog'
p2451
aS'"The Day of the Locust'
p2452
aS'"Farewell, My Lovely'
p2453
aS'"Charley Varrick'
p2454
aS'"The Dancer Upstairs'
p2455
aS'"The Reflecting Skin'
p2456
aS'"Music Box'
p2457
aS'"The Hit'
p2458
aS'"Prince of the City'
p2459
aS'"The Ninth Configuration'
p2460
aS'"Prime Cut'
p2461
aS'"The Yakuza'
p2462
aS'"The Last Wave'
p2463
aS'"The Element of Crime'
p2464
aS'"Emperor of the North'
p2465
aS'"The Other'
p2466
aS'"Limbo'
p2467
aS'"Who Can Kill a Child?'
p2468
aS'"Lady Snowblood'
p2469
aS'"Across 110th Street'
p2470
aS'"Punishment Park'
p2471
aS'"The Silent Partner'
p2472
aS'"Murder by Decree'
p2473
aS'"The Last of Sheila'
p2474
aS'"Rabid Dogs'
p2475
aS'"The Offence'
p2476
aS'"Mr. Klein'
p2477
aS'"The House of the Laughing Windows'
p2478
aS'"The Navigator: A Mediaeval Odyssey'
p2479
a.